ccopy_reg
_reconstructor
p0
(cutil
Counter
p1
c__builtin__
dict
p2
(dp3
S'bias'
p4
F-3.940935637296003
sS'missingFoodDistance'
p5
F-20.947907593158924
sS'distanceToEntrance'
p6
F-17.816112542431753
sS'scaredState'
p7
F1.0600623915937457
sS'isPacman'
p8
F-0.22663044155580805
sS'numOfInvaders'
p9
F1.0309765436975509
sS'invaderDistance'
p10
F-24.724943222154916
stp11
Rp12
.