ccopy_reg
_reconstructor
p0
(cutil
Counter
p1
c__builtin__
dict
p2
(dp3
S'distanceToGhost'
p4
F-0.023246811873140483
sS'bias'
p5
F-4.921244227779046
sS'targetPosition'
p6
F-1.9415049256734194
sS'successorScore'
p7
F-0.05505235521062358
stp8
Rp9
.