ccopy_reg
_reconstructor
p0
(cutil
Counter
p1
c__builtin__
dict
p2
(dp3
S'distanceToGhost'
p4
F-1.1450613632412818
sS'bias'
p5
F-4.733133320570293
sS'targetPosition'
p6
F0.15716149651465722
stp7
Rp8
.
