ccopy_reg
_reconstructor
p0
(cutil
Counter
p1
c__builtin__
dict
p2
(dp3
S'distanceToGhost'
p4
F-0.04830883769173515
sS'bias'
p5
F-4.581950083326092
sS'numOfGhosts'
p6
F-0.0978620239580613
sS'successorScore'
p7
F0.9169816334644033
sS'targetPosition'
p8
F-8.45227535618265
sS'distanceToInvader'
p9
F0.4645185484656794
stp10
Rp11
.