ccopy_reg
_reconstructor
p0
(cutil
Counter
p1
c__builtin__
dict
p2
(dp3
S'bias'
p4
F-5.965332312595531
sS'missingFoodDistance'
p5
F-15.749014991449831
sS'distanceToEntrance'
p6
F-10.976462835801478
sS'scaredState'
p7
F1.0681305090282578
sS'isPacman'
p8
F4.874879766979384
sS'numOfInvaders'
p9
F0.6921853327918142
sS'invaderDistance'
p10
F-27.289202264432156
stp11
Rp12
.