ccopy_reg
_reconstructor
p0
(cutil
Counter
p1
c__builtin__
dict
p2
(dp3
S'distanceToGhost'
p4
F-0.09120859863872485
sS'bias'
p5
F-4.778961445716084
sS'targetPosition'
p6
F5.2539379718427455
stp7
Rp8
.