ccopy_reg
_reconstructor
p0
(cutil
Counter
p1
c__builtin__
dict
p2
(dp3
S'bias'
p4
F-6.1932559736488155
sS'missingFoodDistance'
p5
F-12.651776463751023
sS'distanceToEntrance'
p6
F-8.935734302258002
sS'scaredState'
p7
F1.0681305090282578
sS'isPacman'
p8
F0.22784574059864363
sS'numOfInvaders'
p9
F0.8385944376041887
sS'invaderDistance'
p10
F-27.497792993317265
stp11
Rp12
.