ccopy_reg
_reconstructor
p0
(cutil
Counter
p1
c__builtin__
dict
p2
(dp3
S'bias'
p4
F-4.952049116175205
sS'missingFoodDistance'
p5
F-8.12789923148146
sS'distanceToEntrance'
p6
F-6.622842281335308
sS'scaredState'
p7
F1.1355706099852891
sS'isPacman'
p8
F-0.22433502168640782
sS'numOfInvaders'
p9
F1.0752513842357354
sS'invaderDistance'
p10
F-18.058777676262988
stp11
Rp12
.