ccopy_reg
_reconstructor
p0
(cutil
Counter
p1
c__builtin__
dict
p2
(dp3
S'distanceToGhost'
p4
F0.44404369202307564
sS'bias'
p5
F25.55647914782629
sS'distanceToFood'
p6
F3.6056182089867166
sS'successorScore'
p7
F1.3450008380296012
stp8
Rp9
.