ccopy_reg
_reconstructor
p0
(cutil
Counter
p1
c__builtin__
dict
p2
(dp3
S'bias'
p4
F-4.493832971102003
sS'missingFoodDistance'
p5
F-21.208320083380833
sS'distanceToEntrance'
p6
F-9.395676182048199
sS'scaredState'
p7
F2.2859176709141935
sS'isPacman'
p8
F2.6928231549328214
sS'numOfInvaders'
p9
F0.14265821354397884
sS'invaderDistance'
p10
F-25.315420402207387
stp11
Rp12
.