ccopy_reg
_reconstructor
p0
(cutil
Counter
p1
c__builtin__
dict
p2
(dp3
S'bias'
p4
F-5.1383279275281915
sS'distanceToEntrance'
p5
F-0.7421078709823405
sS'missingFoodDistance'
p6
F1.067402303117718
sS'scaredState'
p7
F0.0
sS'numOfInvaders'
p8
F1.1665138840988774
sS'isPacman'
p9
F-0.0338148095604113
sS'invaderDistance'
p10
F-4.488772562777643
stp11
Rp12
.