ccopy_reg
_reconstructor
p0
(cutil
Counter
p1
c__builtin__
dict
p2
(dp3
S'bias'
p4
F-5.247866007783201
sS'missingFoodDistance'
p5
F-7.342777467585011
sS'distanceToEntrance'
p6
F-8.642949851502216
sS'scaredState'
p7
F1.1010763005783293
sS'isPacman'
p8
F-0.28619726873778034
sS'numOfInvaders'
p9
F0.9993477618561777
sS'invaderDistance'
p10
F-16.84591929426509
stp11
Rp12
.