ccopy_reg
_reconstructor
p0
(cutil
Counter
p1
c__builtin__
dict
p2
(dp3
S'distanceToGhost'
p4
F-0.43908145000449517
sS'bias'
p5
F-4.553073775931818
sS'numOfGhosts'
p6
F-0.1843883554103024
sS'successorScore'
p7
F0.9169816334644033
sS'targetPosition'
p8
F-13.027914273379286
sS'distanceToInvader'
p9
F-0.01544002954807272
stp10
Rp11
.