ccopy_reg
_reconstructor
p0
(cutil
Counter
p1
c__builtin__
dict
p2
(dp3
S'bias'
p4
F-7.379708745237831
sS'distanceToEntrance'
p5
F-20.917783914745606
sS'missingFoodDistance'
p6
F-3.693026548449559
sS'scaredState'
p7
F5.346532959631511
sS'numOfInvaders'
p8
F-0.14286943453344417
sS'isPacman'
p9
F1.6458552999032965
sS'invaderDistance'
p10
F-22.93992823996326
stp11
Rp12
.