ccopy_reg
_reconstructor
p0
(cutil
Counter
p1
c__builtin__
dict
p2
(dp3
S'distanceToGhost'
p4
F-1.046274480191043
sS'distanceToInvader'
p5
F-0.5606343651789838
sS'bias'
p6
F-2.13771244759785
sS'numOfGhosts'
p7
F-0.35154848154904333
sS'targetPosition'
p8
F-24.506603340418533
stp9
Rp10
.