ccopy_reg
_reconstructor
p0
(cutil
Counter
p1
c__builtin__
dict
p2
(dp3
S'distanceToGhost'
p4
F-0.5474271003773479
sS'numOfGhosts'
p5
F-0.060945475016475695
sS'bias'
p6
F-4.2721113777950315
sS'distanceToInvader'
p7
F-0.21968108764475805
sS'targetPosition'
p8
F-14.481228855813674
stp9
Rp10
.