ccopy_reg
_reconstructor
p0
(cutil
Counter
p1
c__builtin__
dict
p2
(dp3
S'distanceToGhost'
p4
F-0.937996665999395
sS'distanceToInvader'
p5
F-0.21968108764475805
sS'bias'
p6
F-4.482185319802399
sS'numOfGhosts'
p7
F-0.05377062001261451
sS'targetPosition'
p8
F-20.904057108381103
stp9
Rp10
.