ccopy_reg
_reconstructor
p0
(cutil
Counter
p1
c__builtin__
dict
p2
(dp3
S'distanceToGhost'
p4
F-1.1817616960168724
sS'numOfGhosts'
p5
F-0.3594832835217913
sS'bias'
p6
F-4.807251464599814
sS'distanceToInvader'
p7
F-0.523948237607476
sS'targetPosition'
p8
F-22.31644664126268
stp9
Rp10
.