ccopy_reg
_reconstructor
p0
(cutil
Counter
p1
c__builtin__
dict
p2
(dp3
S'distanceToGhost'
p4
F-1.3252058484173947
sS'distanceToInvader'
p5
F-0.21968108764475805
sS'bias'
p6
F-3.162297670376368
sS'numOfGhosts'
p7
F-0.638257080909393
sS'targetPosition'
p8
F-20.97570354242667
stp9
Rp10
.