ccopy_reg
_reconstructor
p0
(cutil
Counter
p1
c__builtin__
dict
p2
(dp3
S'distanceToGhost'
p4
F-1.046274480191043
sS'numOfGhosts'
p5
F-0.9883304258547115
sS'bias'
p6
F-4.1983425757190425
sS'distanceToInvader'
p7
F-0.5606343651789838
sS'targetPosition'
p8
F-24.80809924545153
stp9
Rp10
.