ccopy_reg
_reconstructor
p0
(cutil
Counter
p1
c__builtin__
dict
p2
(dp3
S'distanceToGhost'
p4
F-0.8204803095911946
sS'numOfGhosts'
p5
F-0.614794945924458
sS'bias'
p6
F-3.6466515285910237
sS'distanceToInvader'
p7
F-0.21968108764475805
sS'targetPosition'
p8
F-17.949029412597632
stp9
Rp10
.