ccopy_reg
_reconstructor
p0
(cutil
Counter
p1
c__builtin__
dict
p2
(dp3
S'bias'
p4
F-5.263017572225769
sS'distanceToEntrance'
p5
F-13.738398417141477
sS'missingFoodDistance'
p6
F-2.5215854066914605
sS'scaredState'
p7
F5.966056019924637
sS'numOfInvaders'
p8
F1.4520733747785879
sS'isPacman'
p9
F0.20109261626874692
sS'invaderDistance'
p10
F-26.843077419089852
stp11
Rp12
.