ccopy_reg
_reconstructor
p0
(cutil
Counter
p1
c__builtin__
dict
p2
(dp3
S'bias'
p4
F-4.724117585510769
sS'distanceToEntrance'
p5
F-8.693332373034218
sS'missingFoodDistance'
p6
F-2.938927904587311
sS'scaredState'
p7
F6.532691532109684
sS'numOfInvaders'
p8
F0.11978728494679546
sS'isPacman'
p9
F0.20109261626874692
sS'invaderDistance'
p10
F-14.41411069381174
stp11
Rp12
.