ccopy_reg
_reconstructor
p0
(cutil
Counter
p1
c__builtin__
dict
p2
(dp3
S'bias'
p4
F-4.7358416969746395
sS'distanceToEntrance'
p5
F-14.989341544103803
sS'missingFoodDistance'
p6
F-4.443376568936904
sS'scaredState'
p7
F6.2021608272609905
sS'numOfInvaders'
p8
F0.7315522476852717
sS'isPacman'
p9
F0.07327131977082438
sS'invaderDistance'
p10
F-26.17572385337668
stp11
Rp12
.