ccopy_reg
_reconstructor
p0
(cutil
Counter
p1
c__builtin__
dict
p2
(dp3
S'bias'
p4
F-5.543447550815227
sS'distanceToEntrance'
p5
F-21.080206760708958
sS'missingFoodDistance'
p6
F-3.6986412084631284
sS'scaredState'
p7
F5.346532959631511
sS'numOfInvaders'
p8
F0.5784938074632147
sS'isPacman'
p9
F1.6458552999032965
sS'invaderDistance'
p10
F-22.926466440764976
stp11
Rp12
.