ccopy_reg
_reconstructor
p0
(cutil
Counter
p1
c__builtin__
dict
p2
(dp3
S'distanceToGhost'
p4
F-1.6849909175749402
sS'goToHome'
p5
F-0.9944509435554856
sS'bias'
p6
F1.514348898704332
sS'distanceToFood'
p7
F-7.961459337497621
sS'successorScore'
p8
F5.86729846297739
stp9
Rp10
.