ccopy_reg
_reconstructor
p0
(cutil
Counter
p1
c__builtin__
dict
p2
(dp3
S'distanceToGhost'
p4
F-1.1450613632412818
sS'bias'
p5
F-4.85928787326594
sS'targetPosition'
p6
F0.17091806565911316
sS'successorScore'
p7
F0.13012706379070452
sS'goToHome'
p8
F-0.004182322854881113
sS'distanceToFood'
p9
F-0.008515896932234583
stp10
Rp11
.