ccopy_reg
_reconstructor
p0
(cutil
Counter
p1
c__builtin__
dict
p2
(dp3
S'distanceToGhost'
p4
F-0.09789200941236537
sS'bias'
p5
F-3.976514721111707
sS'numOfGhosts'
p6
F-0.5649077947787735
sS'successorScore'
p7
F0.9169816334644033
sS'targetPosition'
p8
F-9.136918119539912
sS'distanceToInvader'
p9
F0.4645185484656794
stp10
Rp11
.