ccopy_reg
_reconstructor
p0
(cutil
Counter
p1
c__builtin__
dict
p2
(dp3
S'bias'
p4
F-4.940446070695125
sS'missingFoodDistance'
p5
F-7.973778419083409
sS'distanceToEntrance'
p6
F-7.030847997118788
sS'scaredState'
p7
F1.1200181367706616
sS'isPacman'
p8
F-0.24999762765327502
sS'numOfInvaders'
p9
F1.0050919805715377
sS'invaderDistance'
p10
F-17.9331605045417
stp11
Rp12
.