ccopy_reg
_reconstructor
p0
(cutil
Counter
p1
c__builtin__
dict
p2
(dp3
S'bias'
p4
F-6.145700125165018
sS'missingFoodDistance'
p5
F-12.557374807329829
sS'distanceToEntrance'
p6
F-8.925034110936432
sS'scaredState'
p7
F1.0681305090282578
sS'isPacman'
p8
F0.25186720758509373
sS'numOfInvaders'
p9
F0.6464219309488184
sS'invaderDistance'
p10
F-27.50589581350707
stp11
Rp12
.