ccopy_reg
_reconstructor
p0
(cutil
Counter
p1
c__builtin__
dict
p2
(dp3
S'ghost-distance'
p4
F3.763708484777899
sS'numOfGhosts'
p5
F0.00015670051540997757
sS'successorScore'
p6
F27.95284689503767
sS'distanceToFood'
p7
F-3.552103735787748
sS'distanceToGhost'
p8
F-0.022218769329271852
sS'bias'
p9
F-60.90365358478727
sS'back-home'
p10
F0.03688489580875258
sS'#-of-ghosts-1-step-away'
p11
F-0.5650838482596605
stp12
Rp13
.