(dp1
S'layout'
p2
(ilayout
Layout
p3
(dp4
S'capsules'
p5
(lp6
sS'numGhosts'
p7
I4
sS'food'
p8
(igame
Grid
p9
(dp10
S'CELLS_PER_INT'
p11
I30
sS'width'
p12
I34
sS'data'
p13
(lp14
(lp15
I00
aI00
aI00
aI00
aI00
aI00
aI00
aI00
aI00
aI00
aI00
aI00
aI00
aI00
aI00
aI00
aI00
aI00
aa(lp16
I00
aI00
aI00
aI00
aI00
aI00
aI01
aI00
aI00
aI00
aI00
aI00
aI00
aI00
aI01
aI00
aI01
aI00
aa(lp17
I00
aI00
aI00
aI00
aI00
aI00
aI01
aI00
aI00
aI00
aI00
aI00
aI00
aI00
aI01
aI00
aI01
aI00
aa(lp18
I00
aI00
aI00
aI00
aI00
aI00
aI00
aI00
aI01
aI00
aI00
aI01
aI00
aI00
aI00
aI00
aI00
aI00
aa(lp19
I00
aI00
aI00
aI00
aI00
aI00
aI00
aI00
aI00
aI00
aI01
aI00
aI00
aI00
aI01
aI00
aI00
aI00
aa(lp20
I00
aI00
aI00
aI00
aI00
aI00
aI00
aI00
aI01
aI00
aI00
aI00
aI00
aI00
aI00
aI00
aI00
aI00
aa(lp21
I00
aI01
aI01
aI00
aI00
aI00
aI01
aI00
aI01
aI00
aI00
aI00
aI00
aI00
aI00
aI00
aI00
aI00
aa(lp22
I00
aI01
aI00
aI00
aI00
aI00
aI01
aI00
aI00
aI00
aI00
aI00
aI01
aI00
aI00
aI00
aI00
aI00
aa(lp23
I00
aI00
aI00
aI00
aI00
aI00
aI00
aI00
aI00
aI00
aI00
aI00
aI00
aI00
aI00
aI00
aI00
aI00
aa(lp24
I00
aI01
aI01
aI00
aI00
aI00
aI01
aI00
aI00
aI00
aI01
aI00
aI00
aI00
aI00
aI00
aI00
aI00
aa(lp25
I00
aI00
aI01
aI00
aI00
aI00
aI00
aI00
aI00
aI00
aI00
aI00
aI00
aI00
aI00
aI00
aI00
aI00
aa(lp26
I00
aI00
aI00
aI00
aI00
aI00
aI00
aI00
aI00
aI00
aI00
aI00
aI00
aI00
aI00
aI00
aI01
aI00
aa(lp27
I00
aI00
aI00
aI00
aI01
aI00
aI01
aI00
aI00
aI00
aI00
aI00
aI00
aI00
aI00
aI00
aI00
aI00
aa(lp28
I00
aI00
aI00
aI00
aI00
aI00
aI00
aI00
aI00
aI00
aI00
aI00
aI00
aI00
aI01
aI00
aI00
aI00
aa(lp29
I00
aI00
aI00
aI00
aI00
aI01
aI00
aI00
aI00
aI00
aI00
aI00
aI00
aI00
aI01
aI00
aI00
aI00
aa(lp30
I00
aI00
aI00
aI00
aI00
aI00
aI00
aI00
aI00
aI00
aI00
aI00
aI00
aI00
aI00
aI00
aI00
aI00
aa(lp31
I00
aI01
aI00
aI00
aI00
aI00
aI00
aI00
aI00
aI00
aI00
aI00
aI00
aI00
aI00
aI00
aI00
aI00
aa(lp32
I00
aI00
aI00
aI00
aI00
aI00
aI00
aI00
aI00
aI00
aI00
aI00
aI00
aI00
aI00
aI00
aI01
aI00
aa(lp33
I00
aI00
aI00
aI00
aI00
aI00
aI00
aI00
aI00
aI00
aI00
aI00
aI00
aI00
aI00
aI00
aI00
aI00
aa(lp34
I00
aI00
aI00
aI01
aI00
aI00
aI00
aI00
aI00
aI00
aI00
aI00
aI01
aI00
aI00
aI00
aI00
aI00
aa(lp35
I00
aI00
aI00
aI01
aI00
aI00
aI00
aI00
aI00
aI00
aI00
aI00
aI00
aI00
aI00
aI00
aI00
aI00
aa(lp36
I00
aI00
aI00
aI00
aI00
aI00
aI00
aI00
aI00
aI00
aI00
aI01
aI00
aI01
aI00
aI00
aI00
aI00
aa(lp37
I00
aI01
aI00
aI00
aI00
aI00
aI00
aI00
aI00
aI00
aI00
aI00
aI00
aI00
aI00
aI00
aI00
aI00
aa(lp38
I00
aI00
aI00
aI00
aI00
aI00
aI00
aI00
aI00
aI00
aI00
aI00
aI00
aI00
aI00
aI01
aI00
aI00
aa(lp39
I00
aI00
aI00
aI00
aI00
aI00
aI00
aI01
aI00
aI00
aI00
aI01
aI00
aI00
aI00
aI01
aI01
aI00
aa(lp40
I00
aI00
aI00
aI00
aI00
aI00
aI00
aI00
aI00
aI00
aI00
aI00
aI00
aI00
aI00
aI00
aI00
aI00
aa(lp41
I00
aI00
aI00
aI00
aI00
aI01
aI00
aI00
aI00
aI00
aI00
aI01
aI00
aI00
aI00
aI00
aI01
aI00
aa(lp42
I00
aI00
aI00
aI00
aI00
aI00
aI00
aI00
aI00
aI01
aI00
aI01
aI00
aI00
aI00
aI01
aI01
aI00
aa(lp43
I00
aI00
aI00
aI00
aI00
aI00
aI00
aI00
aI00
aI01
aI00
aI00
aI00
aI00
aI00
aI00
aI00
aI00
aa(lp44
I00
aI00
aI00
aI01
aI00
aI00
aI00
aI01
aI00
aI00
aI00
aI00
aI00
aI00
aI00
aI00
aI00
aI00
aa(lp45
I00
aI00
aI00
aI00
aI00
aI00
aI01
aI00
aI00
aI01
aI00
aI00
aI00
aI00
aI00
aI00
aI00
aI00
aa(lp46
I00
aI01
aI00
aI01
aI00
aI00
aI00
aI00
aI00
aI00
aI00
aI01
aI00
aI00
aI00
aI00
aI00
aI00
aa(lp47
I00
aI01
aI00
aI01
aI00
aI00
aI00
aI00
aI00
aI00
aI00
aI01
aI00
aI00
aI00
aI00
aI00
aI00
aa(lp48
I00
aI00
aI00
aI00
aI00
aI00
aI00
aI00
aI00
aI00
aI00
aI00
aI00
aI00
aI00
aI00
aI00
aI00
aasS'height'
p49
I18
sbsS'agentPositions'
p50
(lp51
(I00
(I1
I2
tp52
tp53
a(I00
(I32
I15
tp54
tp55
a(I00
(I1
I1
tp56
tp57
a(I00
(I32
I16
tp58
tp59
asg49
I18
sg12
I34
sS'walls'
p60
(igame
Grid
p61
(dp62
g11
I30
sg12
I34
sg13
(lp63
(lp64
I01
aI01
aI01
aI01
aI01
aI01
aI01
aI01
aI01
aI01
aI01
aI01
aI01
aI01
aI01
aI01
aI01
aI01
aa(lp65
I01
aI00
aI00
aI00
aI00
aI01
aI00
aI01
aI00
aI00
aI00
aI00
aI00
aI01
aI00
aI01
aI00
aI01
aa(lp66
I01
aI01
aI01
aI00
aI01
aI01
aI00
aI01
aI00
aI00
aI01
aI00
aI00
aI00
aI00
aI01
aI00
aI01
aa(lp67
I01
aI00
aI00
aI00
aI00
aI01
aI00
aI00
aI00
aI01
aI01
aI00
aI00
aI00
aI00
aI00
aI00
aI01
aa(lp68
I01
aI00
aI00
aI00
aI00
aI00
aI00
aI01
aI00
aI00
aI00
aI00
aI00
aI01
aI00
aI00
aI00
aI01
aa(lp69
I01
aI01
aI01
aI01
aI00
aI01
aI01
aI01
aI00
aI01
aI01
aI01
aI00
aI01
aI01
aI00
aI01
aI01
aa(lp70
I01
aI00
aI00
aI00
aI00
aI01
aI00
aI01
aI00
aI01
aI00
aI00
aI00
aI00
aI00
aI00
aI00
aI01
aa(lp71
I01
aI00
aI01
aI00
aI00
aI00
aI00
aI01
aI00
aI00
aI00
aI01
aI00
aI01
aI00
aI01
aI00
aI01
aa(lp72
I01
aI01
aI01
aI01
aI00
aI01
aI01
aI01
aI01
aI01
aI01
aI01
aI01
aI01
aI00
aI01
aI00
aI01
aa(lp73
I01
aI00
aI00
aI01
aI00
aI01
aI00
aI00
aI00
aI00
aI00
aI00
aI00
aI01
aI00
aI01
aI00
aI01
aa(lp74
I01
aI01
aI00
aI01
aI00
aI01
aI01
aI00
aI01
aI01
aI01
aI01
aI00
aI01
aI00
aI00
aI00
aI01
aa(lp75
I01
aI00
aI00
aI01
aI00
aI01
aI00
aI00
aI00
aI00
aI01
aI00
aI00
aI01
aI00
aI01
aI00
aI01
aa(lp76
I01
aI00
aI00
aI00
aI00
aI01
aI00
aI00
aI00
aI00
aI01
aI00
aI00
aI01
aI00
aI01
aI00
aI01
aa(lp77
I01
aI01
aI01
aI01
aI00
aI01
aI01
aI01
aI01
aI00
aI01
aI01
aI01
aI01
aI00
aI01
aI00
aI01
aa(lp78
I01
aI00
aI00
aI00
aI00
aI00
aI00
aI00
aI00
aI00
aI00
aI00
aI00
aI01
aI00
aI01
aI00
aI01
aa(lp79
I01
aI00
aI00
aI00
aI01
aI01
aI01
aI01
aI01
aI01
aI00
aI01
aI00
aI01
aI01
aI01
aI00
aI01
aa(lp80
I01
aI00
aI00
aI00
aI00
aI00
aI00
aI00
aI00
aI00
aI00
aI00
aI00
aI00
aI00
aI00
aI00
aI01
aa(lp81
I01
aI00
aI00
aI00
aI00
aI00
aI00
aI00
aI00
aI00
aI00
aI00
aI00
aI00
aI00
aI00
aI00
aI01
aa(lp82
I01
aI00
aI01
aI01
aI01
aI00
aI01
aI00
aI01
aI01
aI01
aI01
aI01
aI01
aI00
aI00
aI00
aI01
aa(lp83
I01
aI00
aI01
aI00
aI01
aI00
aI00
aI00
aI00
aI00
aI00
aI00
aI00
aI00
aI00
aI00
aI00
aI01
aa(lp84
I01
aI00
aI01
aI00
aI01
aI01
aI01
aI01
aI00
aI01
aI01
aI01
aI01
aI00
aI01
aI01
aI01
aI01
aa(lp85
I01
aI00
aI01
aI00
aI01
aI00
aI00
aI01
aI00
aI00
aI00
aI00
aI01
aI00
aI00
aI00
aI00
aI01
aa(lp86
I01
aI00
aI01
aI00
aI01
aI00
aI00
aI01
aI00
aI00
aI00
aI00
aI01
aI00
aI01
aI00
aI00
aI01
aa(lp87
I01
aI00
aI00
aI00
aI01
aI00
aI01
aI01
aI01
aI01
aI00
aI01
aI01
aI00
aI01
aI00
aI01
aI01
aa(lp88
I01
aI00
aI01
aI00
aI01
aI00
aI00
aI00
aI00
aI00
aI00
aI00
aI01
aI00
aI01
aI00
aI00
aI01
aa(lp89
I01
aI00
aI01
aI00
aI01
aI01
aI01
aI01
aI01
aI01
aI01
aI01
aI01
aI00
aI01
aI01
aI01
aI01
aa(lp90
I01
aI00
aI01
aI00
aI01
aI00
aI01
aI00
aI00
aI00
aI01
aI00
aI00
aI00
aI00
aI01
aI00
aI01
aa(lp91
I01
aI00
aI00
aI00
aI00
aI00
aI00
aI00
aI01
aI00
aI01
aI00
aI01
aI00
aI00
aI00
aI00
aI01
aa(lp92
I01
aI01
aI00
aI01
aI01
aI00
aI01
aI01
aI01
aI00
aI01
aI01
aI01
aI00
aI01
aI01
aI01
aI01
aa(lp93
I01
aI00
aI00
aI00
aI01
aI00
aI00
aI00
aI00
aI00
aI01
aI00
aI00
aI00
aI00
aI00
aI00
aI01
aa(lp94
I01
aI00
aI00
aI00
aI00
aI00
aI00
aI01
aI01
aI00
aI00
aI00
aI01
aI00
aI00
aI00
aI00
aI01
aa(lp95
I01
aI00
aI01
aI00
aI00
aI00
aI00
aI01
aI00
aI00
aI01
aI00
aI01
aI01
aI00
aI01
aI01
aI01
aa(lp96
I01
aI00
aI01
aI00
aI01
aI00
aI00
aI00
aI00
aI00
aI01
aI00
aI01
aI00
aI00
aI00
aI00
aI01
aa(lp97
I01
aI01
aI01
aI01
aI01
aI01
aI01
aI01
aI01
aI01
aI01
aI01
aI01
aI01
aI01
aI01
aI01
aI01
aasg49
I18
sbsS'totalFood'
p98
I60
sS'layoutText'
p99
(lp100
S'%%%%%%%%%%%%%%%%%%%%%%%%%%%%%%%%%%'
p101
aS'%..  %     .     .  %  %.%..%  %4%'
p102
aS'%%%    %%% %%%%%    %  ..%%.%  %2%'
p103
aS'%.. .%       ..%    % %%%%  %    %'
p104
aS'%%  %% %%%%%%%%%  %  .         % %'
p105
aS'%      .%    %    %.%%%%%% %% %%%%'
p106
aS'%  . % %% %  % %  % %. %.%..%  ..%'
p107
aS'% %%.%  %.%%%%    % %    %%%%% %%%'
p108
aS'%  % %% % %    %  % %  % % .. .  %'
p109
aS'%  . .. % %  % %  %    % % %% %  %'
p110
aS'%%% %%%%%    % %    %%%%.%  %.%% %'
p111
aS'%..  %..%.% .% %  % %  % %% % .  %'
p112
aS'%%%% %% %%%%%%.%    %    %.      %'
p113
aS'% %         .  %  %%%%%%%%% %%  %%'
p114
aS'%    %  %%%% %    %..       %. ..%'
p115
aS'%1%  %.%%..  %    %%%%% %%%    %%%'
p116
aS'%3%  %..%.%  %  .     .     %  ..%'
p117
aS'%%%%%%%%%%%%%%%%%%%%%%%%%%%%%%%%%%'
p118
asbsS'blueTeamName'
p119
S'Blue'
p120
sS'actions'
p121
(lp122
(I1
S'South'
p123
tp124
a(I2
S'North'
p125
tp126
a(I3
g123
tp127
a(I0
g125
tp128
a(I1
S'West'
p129
tp130
a(I2
g125
tp131
a(I3
g123
tp132
a(I0
S'East'
p133
tp134
a(I1
g129
tp135
a(I2
g133
tp136
a(I3
g129
tp137
a(I0
g133
tp138
a(I1
g123
tp139
a(I2
g133
tp140
a(I3
g129
tp141
a(I0
g125
tp142
a(I1
g129
tp143
a(I2
g133
tp144
a(I3
g129
tp145
a(I0
g133
tp146
a(I1
g129
tp147
a(I2
g125
tp148
a(I3
g123
tp149
a(I0
g133
tp150
a(I1
g129
tp151
a(I2
g133
tp152
a(I3
g129
tp153
a(I0
g133
tp154
a(I1
g129
tp155
a(I2
g133
tp156
a(I3
g129
tp157
a(I0
g133
tp158
a(I1
g129
tp159
a(I2
g133
tp160
a(I3
g129
tp161
a(I0
g133
tp162
a(I1
g129
tp163
a(I2
g133
tp164
a(I3
g129
tp165
a(I0
g133
tp166
a(I1
g129
tp167
a(I2
g133
tp168
a(I3
g129
tp169
a(I0
g133
tp170
a(I1
g129
tp171
a(I2
g133
tp172
a(I3
g129
tp173
a(I0
g133
tp174
a(I1
g129
tp175
a(I2
g133
tp176
a(I3
g129
tp177
a(I0
g133
tp178
a(I1
g129
tp179
a(I2
g133
tp180
a(I3
g129
tp181
a(I0
g133
tp182
a(I1
g129
tp183
a(I2
g133
tp184
a(I3
g129
tp185
a(I0
g133
tp186
a(I1
g125
tp187
a(I2
g133
tp188
a(I3
g129
tp189
a(I0
g123
tp190
a(I1
g125
tp191
a(I2
g123
tp192
a(I3
g125
tp193
a(I0
g123
tp194
a(I1
g125
tp195
a(I2
g123
tp196
a(I3
g129
tp197
a(I0
g123
tp198
a(I1
g129
tp199
a(I2
g123
tp200
a(I3
g129
tp201
a(I0
g133
tp202
a(I1
g129
tp203
a(I2
g133
tp204
a(I3
g129
tp205
a(I0
g133
tp206
a(I1
g129
tp207
a(I2
g133
tp208
a(I3
g125
tp209
a(I0
g133
tp210
a(I1
g123
tp211
a(I2
g133
tp212
a(I3
g133
tp213
a(I0
g133
tp214
a(I1
g123
tp215
a(I2
g133
tp216
a(I3
g123
tp217
a(I0
g133
tp218
a(I1
g123
tp219
a(I2
g133
tp220
a(I3
g123
tp221
a(I0
g133
tp222
a(I1
g123
tp223
a(I2
g133
tp224
a(I3
g123
tp225
a(I0
g133
tp226
a(I1
g123
tp227
a(I2
g133
tp228
a(I3
g123
tp229
a(I0
g133
tp230
a(I1
g123
tp231
a(I2
g133
tp232
a(I3
g123
tp233
a(I0
g133
tp234
a(I1
g129
tp235
a(I2
g133
tp236
a(I3
g129
tp237
a(I0
g133
tp238
a(I1
g129
tp239
a(I2
g125
tp240
a(I3
g129
tp241
a(I0
g133
tp242
a(I1
g123
tp243
a(I2
g125
tp244
a(I3
g129
tp245
a(I0
g133
tp246
a(I1
g123
tp247
a(I2
g129
tp248
a(I3
g123
tp249
a(I0
g133
tp250
a(I1
g123
tp251
a(I2
g129
tp252
a(I3
g123
tp253
a(I0
g125
tp254
a(I1
g123
tp255
a(I2
g129
tp256
a(I3
g123
tp257
a(I0
g125
tp258
a(I1
g123
tp259
a(I2
g133
tp260
a(I3
g123
tp261
a(I0
g125
tp262
a(I1
g123
tp263
a(I2
g133
tp264
a(I3
g123
tp265
a(I0
g125
tp266
a(I1
g129
tp267
a(I2
g133
tp268
a(I3
g123
tp269
a(I0
g133
tp270
a(I1
g129
tp271
a(I2
g123
tp272
a(I3
g129
tp273
a(I0
g133
tp274
a(I1
g123
tp275
a(I2
g123
tp276
a(I3
g129
tp277
a(I0
g125
tp278
a(I1
g123
tp279
a(I2
g129
tp280
a(I3
g129
tp281
a(I0
g125
tp282
a(I1
g123
tp283
a(I2
g129
tp284
a(I3
g129
tp285
a(I0
g125
tp286
a(I1
g129
tp287
a(I2
g129
tp288
a(I3
g129
tp289
a(I0
g125
tp290
a(I1
g125
tp291
a(I2
g129
tp292
a(I3
g129
tp293
a(I0
g133
tp294
a(I1
g133
tp295
a(I2
g129
tp296
a(I3
g129
tp297
a(I0
g125
tp298
a(I1
g125
tp299
a(I2
g129
tp300
a(I3
g129
tp301
a(I0
g125
tp302
a(I1
g125
tp303
a(I2
g125
tp304
a(I3
g129
tp305
a(I0
g133
tp306
a(I1
g133
tp307
a(I2
g129
tp308
a(I3
g129
tp309
a(I0
g129
tp310
a(I1
g133
tp311
a(I2
g133
tp312
a(I3
g123
tp313
a(I0
g133
tp314
a(I1
g123
tp315
a(I2
g125
tp316
a(I3
g123
tp317
a(I0
g133
tp318
a(I1
g133
tp319
a(I2
g125
tp320
a(I3
g129
tp321
a(I0
g129
tp322
a(I1
g133
tp323
a(I2
g123
tp324
a(I3
g125
tp325
a(I0
g129
tp326
a(I1
g125
tp327
a(I2
g123
tp328
a(I3
g133
tp329
a(I0
g123
tp330
a(I1
g133
tp331
a(I2
g129
tp332
a(I3
g125
tp333
a(I0
g123
tp334
a(I1
g123
tp335
a(I2
g125
tp336
a(I3
g133
tp337
a(I0
g129
tp338
a(I1
g129
tp339
a(I2
g129
tp340
a(I3
g133
tp341
a(I0
g129
tp342
a(I1
g123
tp343
a(I2
g129
tp344
a(I3
g133
tp345
a(I0
g133
tp346
a(I1
g129
tp347
a(I2
g125
tp348
a(I3
g133
tp349
a(I0
g123
tp350
a(I1
g129
tp351
a(I2
g129
tp352
a(I3
g133
tp353
a(I0
g123
tp354
a(I1
g123
tp355
a(I2
g129
tp356
a(I3
g133
tp357
a(I0
g123
tp358
a(I1
g129
tp359
a(I2
g129
tp360
a(I3
g133
tp361
a(I0
g133
tp362
a(I1
g123
tp363
a(I2
g133
tp364
a(I3
g123
tp365
a(I0
g123
tp366
a(I1
g123
tp367
a(I2
g123
tp368
a(I3
g123
tp369
a(I0
g123
tp370
a(I1
g133
tp371
a(I2
g123
tp372
a(I3
g129
tp373
a(I0
g123
tp374
a(I1
g123
tp375
a(I2
g129
tp376
a(I3
g129
tp377
a(I0
g129
tp378
a(I1
g123
tp379
a(I2
g129
tp380
a(I3
g129
tp381
a(I0
g133
tp382
a(I1
g133
tp383
a(I2
g133
tp384
a(I3
g123
tp385
a(I0
g133
tp386
a(I1
g123
tp387
a(I2
g133
tp388
a(I3
g123
tp389
a(I0
g133
tp390
a(I1
g133
tp391
a(I2
g125
tp392
a(I3
g123
tp393
a(I0
g129
tp394
a(I1
g123
tp395
a(I2
g125
tp396
a(I3
g133
tp397
a(I0
g129
tp398
a(I1
g123
tp399
a(I2
g133
tp400
a(I3
g123
tp401
a(I0
g123
tp402
a(I1
g129
tp403
a(I2
g133
tp404
a(I3
g123
tp405
a(I0
g129
tp406
a(I1
g129
tp407
a(I2
g125
tp408
a(I3
g129
tp409
a(I0
g129
tp410
a(I1
g129
tp411
a(I2
g125
tp412
a(I3
g123
tp413
a(I0
g129
tp414
a(I1
g123
tp415
a(I2
g125
tp416
a(I3
g123
tp417
a(I0
g123
tp418
a(I1
g133
tp419
a(I2
g125
tp420
a(I3
g123
tp421
a(I0
g129
tp422
a(I1
g123
tp423
a(I2
g125
tp424
a(I3
g123
tp425
a(I0
g129
tp426
a(I1
g133
tp427
a(I2
g125
tp428
a(I3
g129
tp429
a(I0
g129
tp430
a(I1
g125
tp431
a(I2
g133
tp432
a(I3
g129
tp433
a(I0
g129
tp434
a(I1
g125
tp435
a(I2
g133
tp436
a(I3
g123
tp437
a(I0
g129
tp438
a(I1
g133
tp439
a(I2
g125
tp440
a(I3
g123
tp441
a(I0
g129
tp442
a(I1
g123
tp443
a(I2
g125
tp444
a(I3
g129
tp445
a(I0
g129
tp446
a(I1
g129
tp447
a(I2
g125
tp448
a(I3
g129
tp449
a(I0
g129
tp450
a(I1
g129
tp451
a(I2
g133
tp452
a(I3
g129
tp453
a(I0
g129
tp454
a(I1
g123
tp455
a(I2
g125
tp456
a(I3
g129
tp457
a(I0
g129
tp458
a(I1
g123
tp459
a(I2
g125
tp460
a(I3
g123
tp461
a(I0
g129
tp462
a(I1
g129
tp463
a(I2
g125
tp464
a(I3
g123
tp465
a(I0
g129
tp466
a(I1
g123
tp467
a(I2
g123
tp468
a(I3
g129
tp469
a(I0
g133
tp470
a(I1
g129
tp471
a(I2
g123
tp472
a(I3
g129
tp473
a(I0
g133
tp474
a(I1
g129
tp475
a(I2
g129
tp476
a(I3
g129
tp477
a(I0
g129
tp478
a(I1
g123
tp479
a(I2
g123
tp480
a(I3
g129
tp481
a(I0
g129
tp482
a(I1
g129
tp483
a(I2
g123
tp484
a(I3
g129
tp485
a(I0
g125
tp486
a(I1
g129
tp487
a(I2
g123
tp488
a(I3
g129
tp489
a(I0
g125
tp490
a(I1
g129
tp491
a(I2
g123
tp492
a(I3
g125
tp493
a(I0
g129
tp494
a(I1
g129
tp495
a(I2
g123
tp496
a(I3
g125
tp497
a(I0
g125
tp498
a(I1
g129
tp499
a(I2
g123
tp500
a(I3
g125
tp501
a(I0
g125
tp502
a(I1
g129
tp503
a(I2
g123
tp504
a(I3
g125
tp505
a(I0
g125
tp506
a(I1
g129
tp507
a(I2
g123
tp508
a(I3
g129
tp509
a(I0
g125
tp510
a(I1
g129
tp511
a(I2
g123
tp512
a(I3
g123
tp513
a(I0
g125
tp514
a(I1
g129
tp515
a(I2
g123
tp516
a(I3
g123
tp517
a(I0
g125
tp518
a(I1
g129
tp519
a(I2
g123
tp520
a(I3
g129
tp521
a(I0
g125
tp522
a(I1
g125
tp523
a(I2
g129
tp524
a(I3
g129
tp525
a(I0
g133
tp526
a(I1
g125
tp527
a(I2
g133
tp528
a(I3
g129
tp529
a(I0
g133
tp530
a(I1
g125
tp531
a(I2
g129
tp532
a(I3
g123
tp533
a(I0
g125
tp534
a(I1
g125
tp535
a(I2
g129
tp536
a(I3
g129
tp537
a(I0
g125
tp538
a(I1
g129
tp539
a(I2
g133
tp540
a(I3
g129
tp541
a(I0
g125
tp542
a(I1
g125
tp543
a(I2
g133
tp544
a(I3
g129
tp545
a(I0
g125
tp546
a(I1
g125
tp547
a(I2
g133
tp548
a(I3
g129
tp549
a(I0
g133
tp550
a(I1
g133
tp551
a(I2
g129
tp552
a(I3
g129
tp553
a(I0
g133
tp554
a(I1
g125
tp555
a(I2
g129
tp556
a(I3
g129
tp557
a(I0
g133
tp558
a(I1
g125
tp559
a(I2
g123
tp560
a(I3
g129
tp561
a(I0
g123
tp562
a(I1
g125
tp563
a(I2
g125
tp564
a(I3
g129
tp565
a(I0
g125
tp566
a(I1
g125
tp567
a(I2
g129
tp568
a(I3
g129
tp569
a(I0
g129
tp570
a(I1
g129
tp571
a(I2
g133
tp572
a(I3
g129
tp573
a(I0
g129
tp574
a(I1
g125
tp575
a(I2
g133
tp576
a(I3
g125
tp577
a(I0
g123
tp578
a(I1
g133
tp579
a(I2
g129
tp580
a(I3
g129
tp581
a(I0
g125
tp582
a(I1
g129
tp583
a(I2
g133
tp584
a(I3
g129
tp585
a(I0
g125
tp586
a(I1
g125
tp587
a(I2
g129
tp588
a(I3
g125
tp589
a(I0
g133
tp590
a(I1
g125
tp591
a(I2
g129
tp592
a(I3
g125
tp593
a(I0
g133
tp594
a(I1
g125
tp595
a(I2
g133
tp596
a(I3
g129
tp597
a(I0
g125
tp598
a(I1
g125
tp599
a(I2
g129
tp600
a(I3
g129
tp601
a(I0
g133
tp602
a(I1
g129
tp603
a(I2
g133
tp604
a(I3
g129
tp605
a(I0
g133
tp606
a(I1
g129
tp607
a(I2
g133
tp608
a(I3
g129
tp609
a(I0
g133
tp610
a(I1
g129
tp611
a(I2
g129
tp612
a(I3
g129
tp613
a(I0
g133
tp614
a(I1
g129
tp615
a(I2
g123
tp616
a(I3
g129
tp617
a(I0
g133
tp618
a(I1
g129
tp619
a(I2
g125
tp620
a(I3
g133
tp621
a(I0
g133
tp622
a(I1
g129
tp623
a(I2
g133
tp624
a(I3
g133
tp625
a(I0
g133
tp626
a(I1
g123
tp627
a(I2
g125
tp628
a(I3
g133
tp629
a(I0
g133
tp630
a(I1
g123
tp631
a(I2
g125
tp632
a(I3
g133
tp633
a(I0
g133
tp634
a(I1
g133
tp635
a(I2
g125
tp636
a(I3
g133
tp637
a(I0
g133
tp638
a(I1
g133
tp639
a(I2
g125
tp640
a(I3
g133
tp641
a(I0
g133
tp642
a(I1
g133
tp643
a(I2
g125
tp644
a(I3
g129
tp645
a(I0
g125
tp646
a(I1
g133
tp647
a(I2
g125
tp648
a(I3
g123
tp649
a(I0
g125
tp650
a(I1
g129
tp651
a(I2
g125
tp652
a(I3
g125
tp653
a(I0
g125
tp654
a(I1
g129
tp655
a(I2
g125
tp656
a(I3
g129
tp657
a(I0
g125
tp658
a(I1
g129
tp659
a(I2
g125
tp660
a(I3
g129
tp661
a(I0
g125
tp662
a(I1
g129
tp663
a(I2
g125
tp664
a(I3
g129
tp665
a(I0
g125
tp666
a(I1
g125
tp667
a(I2
g125
tp668
a(I3
g129
tp669
a(I0
g125
tp670
a(I1
g125
tp671
a(I2
g125
tp672
a(I3
g129
tp673
a(I0
g125
tp674
a(I1
g133
tp675
a(I2
g125
tp676
a(I3
g129
tp677
a(I0
g133
tp678
a(I1
g129
tp679
a(I2
g129
tp680
a(I3
g129
tp681
a(I0
g133
tp682
a(I1
g129
tp683
a(I2
g129
tp684
a(I3
g129
tp685
a(I0
g133
tp686
a(I1
g129
tp687
a(I2
g129
tp688
a(I3
g129
tp689
a(I0
g125
tp690
a(I1
g129
tp691
a(I2
g129
tp692
a(I3
g129
tp693
a(I0
g125
tp694
a(I1
g129
tp695
a(I2
g129
tp696
a(I3
g123
tp697
a(I0
g133
tp698
a(I1
g123
tp699
a(I2
g129
tp700
a(I3
g123
tp701
a(I0
g133
tp702
a(I1
g129
tp703
a(I2
g123
tp704
a(I3
g133
tp705
a(I0
g123
tp706
a(I1
g129
tp707
a(I2
g123
tp708
a(I3
g133
tp709
a(I0
g123
tp710
a(I1
g123
tp711
a(I2
g129
tp712
a(I3
g133
tp713
a(I0
g125
tp714
a(I1
g129
tp715
a(I2
g129
tp716
a(I3
g123
tp717
a(I0
g133
tp718
a(I1
g125
tp719
a(I2
g129
tp720
a(I3
g123
tp721
a(I0
g133
tp722
a(I1
g133
tp723
a(I2
g129
tp724
a(I3
g129
tp725
a(I0
g125
tp726
a(I1
g133
tp727
a(I2
g125
tp728
a(I3
g129
tp729
a(I0
g125
tp730
a(I1
g133
tp731
a(I2
g129
tp732
a(I3
g123
tp733
a(I0
g133
tp734
a(I1
g123
tp735
a(I2
g129
tp736
a(I3
g129
tp737
a(I0
g133
tp738
a(I1
g129
tp739
a(I2
g123
tp740
a(I3
g129
tp741
a(I0
g133
tp742
a(I1
g129
tp743
a(I2
g129
tp744
a(I3
g129
tp745
a(I0
g125
tp746
a(I1
g129
tp747
a(I2
g129
tp748
a(I3
g129
tp749
a(I0
g123
tp750
a(I1
g123
tp751
a(I2
g133
tp752
a(I3
g129
tp753
a(I0
g129
tp754
a(I1
g129
tp755
a(I2
g123
tp756
a(I3
g129
tp757
a(I0
g129
tp758
a(I1
g129
tp759
a(I2
g123
tp760
a(I3
g129
tp761
a(I0
g129
tp762
a(I1
g129
tp763
a(I2
g133
tp764
a(I3
g129
tp765
a(I0
g125
tp766
a(I1
g129
tp767
a(I2
g123
tp768
a(I3
g129
tp769
a(I0
g133
tp770
a(I1
g129
tp771
a(I2
g123
tp772
a(I3
g125
tp773
a(I0
g123
tp774
a(I1
g129
tp775
a(I2
g123
tp776
a(I3
g125
tp777
a(I0
g129
tp778
a(I1
g129
tp779
a(I2
g123
tp780
a(I3
g123
tp781
a(I0
g125
tp782
a(I1
g129
tp783
a(I2
g129
tp784
a(I3
g123
tp785
a(I0
g133
tp786
a(I1
g129
tp787
a(I2
g123
tp788
a(I3
g129
tp789
a(I0
g133
tp790
a(I1
g129
tp791
a(I2
g123
tp792
a(I3
g129
tp793
a(I0
g125
tp794
a(I1
g123
tp795
a(I2
g133
tp796
a(I3
g123
tp797
a(I0
g133
tp798
a(I1
g123
tp799
a(I2
g123
tp800
a(I3
g123
tp801
a(I0
g133
tp802
a(I1
g123
tp803
a(I2
g123
tp804
a(I3
g123
tp805
a(I0
g133
tp806
a(I1
g123
tp807
a(I2
g133
tp808
a(I3
g123
tp809
a(I0
g133
tp810
a(I1
g123
tp811
a(I2
g133
tp812
a(I3
g123
tp813
a(I0
g133
tp814
a(I1
g123
tp815
a(I2
g133
tp816
a(I3
g123
tp817
a(I0
g133
tp818
a(I1
g129
tp819
a(I2
g133
tp820
a(I3
g123
tp821
a(I0
g133
tp822
a(I1
g129
tp823
a(I2
g133
tp824
a(I3
g123
tp825
a(I0
g133
tp826
a(I1
g129
tp827
a(I2
g133
tp828
a(I3
g129
tp829
a(I0
g133
tp830
a(I1
g123
tp831
a(I2
g133
tp832
a(I3
g129
tp833
a(I0
g133
tp834
a(I1
g125
tp835
a(I2
g133
tp836
a(I3
g129
tp837
a(I0
g133
tp838
a(I1
g125
tp839
a(I2
g133
tp840
a(I3
g125
tp841
a(I0
g125
tp842
a(I1
g123
tp843
a(I2
g133
tp844
a(I3
g125
tp845
a(I0
g125
tp846
a(I1
g125
tp847
a(I2
g123
tp848
a(I3
g123
tp849
a(I0
g125
tp850
a(I1
g123
tp851
a(I2
g133
tp852
a(I3
g125
tp853
a(I0
g125
tp854
a(I1
g125
tp855
a(I2
g133
tp856
a(I3
g125
tp857
a(I0
g125
tp858
a(I1
g123
tp859
a(I2
g133
tp860
a(I3
g133
tp861
a(I0
g125
tp862
a(I1
g133
tp863
a(I2
g129
tp864
a(I3
g129
tp865
a(I0
g125
tp866
a(I1
g129
tp867
a(I2
g133
tp868
a(I3
g123
tp869
a(I0
g125
tp870
a(I1
g123
tp871
a(I2
g125
tp872
a(I3
g123
tp873
a(I0
g133
tp874
a(I1
g133
tp875
a(I2
g123
tp876
a(I3
g133
tp877
a(I0
g133
tp878
a(I1
g129
tp879
a(I2
g123
tp880
a(I3
g129
tp881
a(I0
g125
tp882
a(I1
g123
tp883
a(I2
g125
tp884
a(I3
g123
tp885
a(I0
g133
tp886
a(I1
g133
tp887
a(I2
g123
tp888
a(I3
g133
tp889
a(I0
g125
tp890
a(I1
g129
tp891
a(I2
g125
tp892
a(I3
g129
tp893
a(I0
g133
tp894
a(I1
g123
tp895
a(I2
g123
tp896
a(I3
g123
tp897
a(I0
g133
tp898
a(I1
g133
tp899
a(I2
g125
tp900
a(I3
g123
tp901
a(I0
g123
tp902
a(I1
g123
tp903
a(I2
g125
tp904
a(I3
g129
tp905
a(I0
g133
tp906
a(I1
g129
tp907
a(I2
g125
tp908
a(I3
g129
tp909
a(I0
g133
tp910
a(I1
g125
tp911
a(I2
g133
tp912
a(I3
g125
tp913
a(I0
g125
tp914
a(I1
g125
tp915
a(I2
g133
tp916
a(I3
g125
tp917
a(I0
g125
tp918
a(I1
g125
tp919
a(I2
g133
tp920
a(I3
g125
tp921
a(I0
g125
tp922
a(I1
g125
tp923
a(I2
g125
tp924
a(I3
g125
tp925
a(I0
g133
tp926
a(I1
g125
tp927
a(I2
g133
tp928
a(I3
g125
tp929
a(I0
g123
tp930
a(I1
g133
tp931
a(I2
g133
tp932
a(I3
g125
tp933
a(I0
g129
tp934
a(I1
g125
tp935
a(I2
g133
tp936
a(I3
g125
tp937
a(I0
g123
tp938
a(I1
g129
tp939
a(I2
g133
tp940
a(I3
g133
tp941
a(I0
g123
tp942
a(I1
g125
tp943
a(I2
g133
tp944
a(I3
g133
tp945
a(I0
g133
tp946
a(I1
g125
tp947
a(I2
g133
tp948
a(I3
g133
tp949
a(I0
g133
tp950
a(I1
g125
tp951
a(I2
g133
tp952
a(I3
g125
tp953
a(I0
g133
tp954
a(I1
g125
tp955
a(I2
g133
tp956
a(I3
g125
tp957
a(I0
g133
tp958
a(I1
g125
tp959
a(I2
g133
tp960
a(I3
g125
tp961
a(I0
g133
tp962
a(I1
g125
tp963
a(I2
g133
tp964
a(I3
g125
tp965
a(I0
g123
tp966
a(I1
g125
tp967
a(I2
g123
tp968
a(I3
g129
tp969
a(I0
g123
tp970
a(I1
g133
tp971
a(I2
g133
tp972
a(I3
g125
tp973
a(I0
g133
tp974
a(I1
g123
tp975
a(I2
g129
tp976
a(I3
g133
tp977
a(I0
g129
tp978
a(I1
g123
tp979
a(I2
g133
tp980
a(I3
g133
tp981
a(I0
g125
tp982
a(I1
g129
tp983
a(I2
g133
tp984
a(I3
g123
tp985
a(I0
g125
tp986
a(I1
g123
tp987
a(I2
g129
tp988
a(I3
g133
tp989
a(I0
g133
tp990
a(I1
g123
tp991
a(I2
g133
tp992
a(I3
g123
tp993
a(I0
g125
tp994
a(I1
g123
tp995
a(I2
g129
tp996
a(I3
g133
tp997
a(I0
g125
tp998
a(I1
g123
tp999
a(I2
g133
tp1000
a(I3
g133
tp1001
a(I0
g125
tp1002
a(I1
g133
tp1003
a(I2
g129
tp1004
a(I3
g133
tp1005
a(I0
g123
tp1006
a(I1
g125
tp1007
a(I2
g123
tp1008
a(I3
g133
tp1009
a(I0
g123
tp1010
a(I1
g125
tp1011
a(I2
g125
tp1012
a(I3
g133
tp1013
a(I0
g123
tp1014
a(I1
g125
tp1015
a(I2
g123
tp1016
a(I3
g133
tp1017
a(I0
g125
tp1018
a(I1
g125
tp1019
a(I2
g125
tp1020
a(I3
g133
tp1021
a(I0
g125
tp1022
a(I1
g133
tp1023
a(I2
g123
tp1024
a(I3
g133
tp1025
a(I0
g125
tp1026
a(I1
g133
tp1027
a(I2
g125
tp1028
a(I3
g125
tp1029
a(I0
g129
tp1030
a(I1
g123
tp1031
a(I2
g133
tp1032
a(I3
g125
tp1033
a(I0
g133
tp1034
a(I1
g133
tp1035
a(I2
g129
tp1036
a(I3
g125
tp1037
a(I0
g125
tp1038
a(I1
g129
tp1039
a(I2
g133
tp1040
a(I3
g123
tp1041
a(I0
g133
tp1042
a(I1
g123
tp1043
a(I2
g129
tp1044
a(I3
g123
tp1045
a(I0
g133
tp1046
a(I1
g123
tp1047
a(I2
g133
tp1048
a(I3
g123
tp1049
a(I0
g125
tp1050
a(I1
g123
tp1051
a(I2
g129
tp1052
a(I3
g129
tp1053
a(I0
g133
tp1054
a(I1
g123
tp1055
a(I2
g129
tp1056
a(I3
g129
tp1057
a(I0
g133
tp1058
a(I1
g123
tp1059
a(I2
g133
tp1060
a(I3
g129
tp1061
a(I0
g133
tp1062
a(I1
g123
tp1063
a(I2
g133
tp1064
a(I3
g129
tp1065
a(I0
g133
tp1066
a(I1
g123
tp1067
a(I2
g129
tp1068
a(I3
g129
tp1069
a(I0
g133
tp1070
a(I1
g123
tp1071
a(I2
g129
tp1072
a(I3
g129
tp1073
a(I0
g133
tp1074
a(I1
g129
tp1075
a(I2
g133
tp1076
a(I3
g129
tp1077
a(I0
g133
tp1078
a(I1
g129
tp1079
a(I2
g129
tp1080
a(I3
g129
tp1081
a(I0
g133
tp1082
a(I1
g129
tp1083
a(I2
g133
tp1084
a(I3
g123
tp1085
a(I0
g133
tp1086
a(I1
g125
tp1087
a(I2
g133
tp1088
a(I3
g123
tp1089
a(I0
g133
tp1090
a(I1
g125
tp1091
a(I2
g133
tp1092
a(I3
g123
tp1093
a(I0
g133
tp1094
a(I1
g133
tp1095
a(I2
g129
tp1096
a(I3
g123
tp1097
a(I0
g125
tp1098
a(I1
g129
tp1099
a(I2
g133
tp1100
a(I3
g123
tp1101
a(I0
g125
tp1102
a(I1
g123
tp1103
a(I2
g123
tp1104
a(I3
g123
tp1105
a(I0
g125
tp1106
a(I1
g133
tp1107
a(I2
g129
tp1108
a(I3
g129
tp1109
a(I0
g125
tp1110
a(I1
g129
tp1111
a(I2
g133
tp1112
a(I3
g129
tp1113
a(I0
g125
tp1114
a(I1
g123
tp1115
a(I2
g125
tp1116
a(I3
g129
tp1117
a(I0
g125
tp1118
a(I1
g123
tp1119
a(I2
g123
tp1120
a(I3
g123
tp1121
a(I0
g125
tp1122
a(I1
g123
tp1123
a(I2
g125
tp1124
a(I3
g123
tp1125
a(I0
g125
tp1126
a(I1
g133
tp1127
a(I2
g125
tp1128
a(I3
g123
tp1129
a(I0
g133
tp1130
a(I1
g123
tp1131
a(I2
g125
tp1132
a(I3
g123
tp1133
a(I0
g133
tp1134
a(I1
g123
tp1135
a(I2
g133
tp1136
a(I3
g123
tp1137
a(I0
g133
tp1138
a(I1
g129
tp1139
a(I2
g133
tp1140
a(I3
g129
tp1141
a(I0
g125
tp1142
a(I1
g129
tp1143
a(I2
g125
tp1144
a(I3
g125
tp1145
a(I0
g125
tp1146
a(I1
g125
tp1147
a(I2
g133
tp1148
a(I3
g129
tp1149
a(I0
g133
tp1150
a(I1
g125
tp1151
a(I2
g133
tp1152
a(I3
g125
tp1153
a(I0
g133
tp1154
a(I1
g129
tp1155
a(I2
g133
tp1156
a(I3
g125
tp1157
a(I0
g123
tp1158
a(I1
g125
tp1159
a(I2
g133
tp1160
a(I3
g125
tp1161
a(I0
g133
tp1162
a(I1
g125
tp1163
a(I2
g133
tp1164
a(I3
g125
tp1165
a(I0
g133
tp1166
a(I1
g125
tp1167
a(I2
g133
tp1168
a(I3
g125
tp1169
a(I0
g133
tp1170
a(I1
g125
tp1171
a(I2
g133
tp1172
a(I3
g125
tp1173
a(I0
g133
tp1174
a(I1
g125
tp1175
a(I2
g133
tp1176
a(I3
g125
tp1177
a(I0
g133
tp1178
a(I1
g125
tp1179
a(I2
g133
tp1180
a(I3
g133
tp1181
a(I0
g133
tp1182
a(I1
g125
tp1183
a(I2
g123
tp1184
a(I3
g133
tp1185
a(I0
g133
tp1186
a(I1
g133
tp1187
a(I2
g123
tp1188
a(I3
g125
tp1189
a(I0
g125
tp1190
a(I1
g133
tp1191
a(I2
g129
tp1192
a(I3
g125
tp1193
a(I0
g133
tp1194
a(I1
g125
tp1195
a(I2
g129
tp1196
a(I3
g125
tp1197
a(I0
g125
tp1198
a(I1
g125
tp1199
a(I2
g133
tp1200
a(I3
g125
tp1201
a(I0
g125
tp1202
a(I1
g125
tp1203
a(I2
g133
tp1204
a(I3
g125
tp1205
a(I0
g129
tp1206
a(I1
g125
tp1207
a(I2
g125
tp1208
a(I3
g125
tp1209
a(I0
g133
tp1210
a(I1
g125
tp1211
a(I2
g125
tp1212
a(I3
g129
tp1213
a(I0
g123
tp1214
a(I1
g125
tp1215
a(I2
g133
tp1216
a(I3
g129
tp1217
a(I0
g123
tp1218
a(I1
g129
tp1219
a(I2
g133
tp1220
a(I3
g129
tp1221
a(I0
g123
tp1222
a(I1
g129
tp1223
a(I2
g123
tp1224
a(I3
g129
tp1225
a(I0
g133
tp1226
a(I1
g129
tp1227
a(I2
g133
tp1228
a(I3
g129
tp1229
a(I0
g133
tp1230
a(I1
g129
tp1231
a(I2
g129
tp1232
a(I3
g129
tp1233
a(I0
g125
tp1234
a(I1
g129
tp1235
a(I2
g133
tp1236
a(I3
g129
tp1237
a(I0
g125
tp1238
a(I1
g129
tp1239
a(I2
g129
tp1240
a(I3
g129
tp1241
a(I0
g125
tp1242
a(I1
g123
tp1243
a(I2
g133
tp1244
a(I3
g129
tp1245
a(I0
g123
tp1246
a(I1
g123
tp1247
a(I2
g123
tp1248
a(I3
g129
tp1249
a(I0
g123
tp1250
a(I1
g129
tp1251
a(I2
g125
tp1252
a(I3
g123
tp1253
a(I0
g123
tp1254
a(I1
g129
tp1255
a(I2
g133
tp1256
a(I3
g129
tp1257
a(I0
g123
tp1258
a(I1
g129
tp1259
a(I2
g125
tp1260
a(I3
g129
tp1261
a(I0
g123
tp1262
a(I1
g129
tp1263
a(I2
g125
tp1264
a(I3
g125
tp1265
a(I0
g133
tp1266
a(I1
g125
tp1267
a(I2
g125
tp1268
a(I3
g129
tp1269
a(I0
g123
tp1270
a(I1
g125
tp1271
a(I2
g125
tp1272
a(I3
g123
tp1273
a(I0
g123
tp1274
a(I1
g133
tp1275
a(I2
g125
tp1276
a(I3
g133
tp1277
a(I0
g129
tp1278
a(I1
g133
tp1279
a(I2
g125
tp1280
a(I3
g133
tp1281
a(I0
g129
tp1282
a(I1
g133
tp1283
a(I2
g125
tp1284
a(I3
g133
tp1285
a(I0
g129
tp1286
a(I1
g133
tp1287
a(I2
g125
tp1288
a(I3
g125
tp1289
a(I0
g129
tp1290
a(I1
g133
tp1291
a(I2
g125
tp1292
a(I3
g133
tp1293
a(I0
g123
tp1294
a(I1
g133
tp1295
a(I2
g125
tp1296
a(I3
g133
tp1297
a(I0
g123
tp1298
a(I1
g133
tp1299
a(I2
g125
tp1300
a(I3
g133
tp1301
a(I0
g133
tp1302
a(I1
g133
tp1303
a(I2
g133
tp1304
a(I3
g133
tp1305
a(I0
g123
tp1306
a(I1
g133
tp1307
a(I2
g125
tp1308
a(I3
g133
tp1309
a(I0
g123
tp1310
a(I1
g133
tp1311
a(I2
g125
tp1312
a(I3
g133
tp1313
a(I0
g123
tp1314
a(I1
g123
tp1315
a(I2
g133
tp1316
a(I3
g133
tp1317
a(I0
g123
tp1318
a(I1
g133
tp1319
a(I2
g129
tp1320
a(I3
g133
tp1321
a(I0
g123
tp1322
a(I1
g125
tp1323
a(I2
g125
tp1324
a(I3
g133
tp1325
a(I0
g123
tp1326
asS'length'
p1327
I1200
sS'agents'
p1328
(lp1329
(igame
Agent
p1330
(dp1331
S'index'
p1332
I0
sba(igame
Agent
p1333
(dp1334
g1332
I0
sba(igame
Agent
p1335
(dp1336
g1332
I0
sba(igame
Agent
p1337
(dp1338
g1332
I0
sbasS'redTeamName'
p1339
S'Red'
p1340
s.