(dp1
S'layout'
p2
(ilayout
Layout
p3
(dp4
S'capsules'
p5
(lp6
sS'numGhosts'
p7
I4
sS'food'
p8
(igame
Grid
p9
(dp10
S'CELLS_PER_INT'
p11
I30
sS'width'
p12
I34
sS'data'
p13
(lp14
(lp15
I00
aI00
aI00
aI00
aI00
aI00
aI00
aI00
aI00
aI00
aI00
aI00
aI00
aI00
aI00
aI00
aI00
aI00
aa(lp16
I00
aI00
aI00
aI00
aI00
aI00
aI01
aI00
aI00
aI00
aI00
aI00
aI00
aI00
aI01
aI00
aI01
aI00
aa(lp17
I00
aI00
aI00
aI00
aI00
aI00
aI01
aI00
aI00
aI00
aI00
aI00
aI00
aI00
aI01
aI00
aI01
aI00
aa(lp18
I00
aI00
aI00
aI00
aI00
aI00
aI00
aI00
aI01
aI00
aI00
aI01
aI00
aI00
aI00
aI00
aI00
aI00
aa(lp19
I00
aI00
aI00
aI00
aI00
aI00
aI00
aI00
aI00
aI00
aI01
aI00
aI00
aI00
aI01
aI00
aI00
aI00
aa(lp20
I00
aI00
aI00
aI00
aI00
aI00
aI00
aI00
aI01
aI00
aI00
aI00
aI00
aI00
aI00
aI00
aI00
aI00
aa(lp21
I00
aI01
aI01
aI00
aI00
aI00
aI01
aI00
aI01
aI00
aI00
aI00
aI00
aI00
aI00
aI00
aI00
aI00
aa(lp22
I00
aI01
aI00
aI00
aI00
aI00
aI01
aI00
aI00
aI00
aI00
aI00
aI01
aI00
aI00
aI00
aI00
aI00
aa(lp23
I00
aI00
aI00
aI00
aI00
aI00
aI00
aI00
aI00
aI00
aI00
aI00
aI00
aI00
aI00
aI00
aI00
aI00
aa(lp24
I00
aI01
aI01
aI00
aI00
aI00
aI01
aI00
aI00
aI00
aI01
aI00
aI00
aI00
aI00
aI00
aI00
aI00
aa(lp25
I00
aI00
aI01
aI00
aI00
aI00
aI00
aI00
aI00
aI00
aI00
aI00
aI00
aI00
aI00
aI00
aI00
aI00
aa(lp26
I00
aI00
aI00
aI00
aI00
aI00
aI00
aI00
aI00
aI00
aI00
aI00
aI00
aI00
aI00
aI00
aI01
aI00
aa(lp27
I00
aI00
aI00
aI00
aI01
aI00
aI01
aI00
aI00
aI00
aI00
aI00
aI00
aI00
aI00
aI00
aI00
aI00
aa(lp28
I00
aI00
aI00
aI00
aI00
aI00
aI00
aI00
aI00
aI00
aI00
aI00
aI00
aI00
aI01
aI00
aI00
aI00
aa(lp29
I00
aI00
aI00
aI00
aI00
aI01
aI00
aI00
aI00
aI00
aI00
aI00
aI00
aI00
aI01
aI00
aI00
aI00
aa(lp30
I00
aI00
aI00
aI00
aI00
aI00
aI00
aI00
aI00
aI00
aI00
aI00
aI00
aI00
aI00
aI00
aI00
aI00
aa(lp31
I00
aI01
aI00
aI00
aI00
aI00
aI00
aI00
aI00
aI00
aI00
aI00
aI00
aI00
aI00
aI00
aI00
aI00
aa(lp32
I00
aI00
aI00
aI00
aI00
aI00
aI00
aI00
aI00
aI00
aI00
aI00
aI00
aI00
aI00
aI00
aI01
aI00
aa(lp33
I00
aI00
aI00
aI00
aI00
aI00
aI00
aI00
aI00
aI00
aI00
aI00
aI00
aI00
aI00
aI00
aI00
aI00
aa(lp34
I00
aI00
aI00
aI01
aI00
aI00
aI00
aI00
aI00
aI00
aI00
aI00
aI01
aI00
aI00
aI00
aI00
aI00
aa(lp35
I00
aI00
aI00
aI01
aI00
aI00
aI00
aI00
aI00
aI00
aI00
aI00
aI00
aI00
aI00
aI00
aI00
aI00
aa(lp36
I00
aI00
aI00
aI00
aI00
aI00
aI00
aI00
aI00
aI00
aI00
aI01
aI00
aI01
aI00
aI00
aI00
aI00
aa(lp37
I00
aI01
aI00
aI00
aI00
aI00
aI00
aI00
aI00
aI00
aI00
aI00
aI00
aI00
aI00
aI00
aI00
aI00
aa(lp38
I00
aI00
aI00
aI00
aI00
aI00
aI00
aI00
aI00
aI00
aI00
aI00
aI00
aI00
aI00
aI01
aI00
aI00
aa(lp39
I00
aI00
aI00
aI00
aI00
aI00
aI00
aI01
aI00
aI00
aI00
aI01
aI00
aI00
aI00
aI01
aI01
aI00
aa(lp40
I00
aI00
aI00
aI00
aI00
aI00
aI00
aI00
aI00
aI00
aI00
aI00
aI00
aI00
aI00
aI00
aI00
aI00
aa(lp41
I00
aI00
aI00
aI00
aI00
aI01
aI00
aI00
aI00
aI00
aI00
aI01
aI00
aI00
aI00
aI00
aI01
aI00
aa(lp42
I00
aI00
aI00
aI00
aI00
aI00
aI00
aI00
aI00
aI01
aI00
aI01
aI00
aI00
aI00
aI01
aI01
aI00
aa(lp43
I00
aI00
aI00
aI00
aI00
aI00
aI00
aI00
aI00
aI01
aI00
aI00
aI00
aI00
aI00
aI00
aI00
aI00
aa(lp44
I00
aI00
aI00
aI01
aI00
aI00
aI00
aI01
aI00
aI00
aI00
aI00
aI00
aI00
aI00
aI00
aI00
aI00
aa(lp45
I00
aI00
aI00
aI00
aI00
aI00
aI01
aI00
aI00
aI01
aI00
aI00
aI00
aI00
aI00
aI00
aI00
aI00
aa(lp46
I00
aI01
aI00
aI01
aI00
aI00
aI00
aI00
aI00
aI00
aI00
aI01
aI00
aI00
aI00
aI00
aI00
aI00
aa(lp47
I00
aI01
aI00
aI01
aI00
aI00
aI00
aI00
aI00
aI00
aI00
aI01
aI00
aI00
aI00
aI00
aI00
aI00
aa(lp48
I00
aI00
aI00
aI00
aI00
aI00
aI00
aI00
aI00
aI00
aI00
aI00
aI00
aI00
aI00
aI00
aI00
aI00
aasS'height'
p49
I18
sbsS'agentPositions'
p50
(lp51
(I00
(I1
I2
tp52
tp53
a(I00
(I32
I15
tp54
tp55
a(I00
(I1
I1
tp56
tp57
a(I00
(I32
I16
tp58
tp59
asg49
I18
sg12
I34
sS'walls'
p60
(igame
Grid
p61
(dp62
g11
I30
sg12
I34
sg13
(lp63
(lp64
I01
aI01
aI01
aI01
aI01
aI01
aI01
aI01
aI01
aI01
aI01
aI01
aI01
aI01
aI01
aI01
aI01
aI01
aa(lp65
I01
aI00
aI00
aI00
aI00
aI01
aI00
aI01
aI00
aI00
aI00
aI00
aI00
aI01
aI00
aI01
aI00
aI01
aa(lp66
I01
aI01
aI01
aI00
aI01
aI01
aI00
aI01
aI00
aI00
aI01
aI00
aI00
aI00
aI00
aI01
aI00
aI01
aa(lp67
I01
aI00
aI00
aI00
aI00
aI01
aI00
aI00
aI00
aI01
aI01
aI00
aI00
aI00
aI00
aI00
aI00
aI01
aa(lp68
I01
aI00
aI00
aI00
aI00
aI00
aI00
aI01
aI00
aI00
aI00
aI00
aI00
aI01
aI00
aI00
aI00
aI01
aa(lp69
I01
aI01
aI01
aI01
aI00
aI01
aI01
aI01
aI00
aI01
aI01
aI01
aI00
aI01
aI01
aI00
aI01
aI01
aa(lp70
I01
aI00
aI00
aI00
aI00
aI01
aI00
aI01
aI00
aI01
aI00
aI00
aI00
aI00
aI00
aI00
aI00
aI01
aa(lp71
I01
aI00
aI01
aI00
aI00
aI00
aI00
aI01
aI00
aI00
aI00
aI01
aI00
aI01
aI00
aI01
aI00
aI01
aa(lp72
I01
aI01
aI01
aI01
aI00
aI01
aI01
aI01
aI01
aI01
aI01
aI01
aI01
aI01
aI00
aI01
aI00
aI01
aa(lp73
I01
aI00
aI00
aI01
aI00
aI01
aI00
aI00
aI00
aI00
aI00
aI00
aI00
aI01
aI00
aI01
aI00
aI01
aa(lp74
I01
aI01
aI00
aI01
aI00
aI01
aI01
aI00
aI01
aI01
aI01
aI01
aI00
aI01
aI00
aI00
aI00
aI01
aa(lp75
I01
aI00
aI00
aI01
aI00
aI01
aI00
aI00
aI00
aI00
aI01
aI00
aI00
aI01
aI00
aI01
aI00
aI01
aa(lp76
I01
aI00
aI00
aI00
aI00
aI01
aI00
aI00
aI00
aI00
aI01
aI00
aI00
aI01
aI00
aI01
aI00
aI01
aa(lp77
I01
aI01
aI01
aI01
aI00
aI01
aI01
aI01
aI01
aI00
aI01
aI01
aI01
aI01
aI00
aI01
aI00
aI01
aa(lp78
I01
aI00
aI00
aI00
aI00
aI00
aI00
aI00
aI00
aI00
aI00
aI00
aI00
aI01
aI00
aI01
aI00
aI01
aa(lp79
I01
aI00
aI00
aI00
aI01
aI01
aI01
aI01
aI01
aI01
aI00
aI01
aI00
aI01
aI01
aI01
aI00
aI01
aa(lp80
I01
aI00
aI00
aI00
aI00
aI00
aI00
aI00
aI00
aI00
aI00
aI00
aI00
aI00
aI00
aI00
aI00
aI01
aa(lp81
I01
aI00
aI00
aI00
aI00
aI00
aI00
aI00
aI00
aI00
aI00
aI00
aI00
aI00
aI00
aI00
aI00
aI01
aa(lp82
I01
aI00
aI01
aI01
aI01
aI00
aI01
aI00
aI01
aI01
aI01
aI01
aI01
aI01
aI00
aI00
aI00
aI01
aa(lp83
I01
aI00
aI01
aI00
aI01
aI00
aI00
aI00
aI00
aI00
aI00
aI00
aI00
aI00
aI00
aI00
aI00
aI01
aa(lp84
I01
aI00
aI01
aI00
aI01
aI01
aI01
aI01
aI00
aI01
aI01
aI01
aI01
aI00
aI01
aI01
aI01
aI01
aa(lp85
I01
aI00
aI01
aI00
aI01
aI00
aI00
aI01
aI00
aI00
aI00
aI00
aI01
aI00
aI00
aI00
aI00
aI01
aa(lp86
I01
aI00
aI01
aI00
aI01
aI00
aI00
aI01
aI00
aI00
aI00
aI00
aI01
aI00
aI01
aI00
aI00
aI01
aa(lp87
I01
aI00
aI00
aI00
aI01
aI00
aI01
aI01
aI01
aI01
aI00
aI01
aI01
aI00
aI01
aI00
aI01
aI01
aa(lp88
I01
aI00
aI01
aI00
aI01
aI00
aI00
aI00
aI00
aI00
aI00
aI00
aI01
aI00
aI01
aI00
aI00
aI01
aa(lp89
I01
aI00
aI01
aI00
aI01
aI01
aI01
aI01
aI01
aI01
aI01
aI01
aI01
aI00
aI01
aI01
aI01
aI01
aa(lp90
I01
aI00
aI01
aI00
aI01
aI00
aI01
aI00
aI00
aI00
aI01
aI00
aI00
aI00
aI00
aI01
aI00
aI01
aa(lp91
I01
aI00
aI00
aI00
aI00
aI00
aI00
aI00
aI01
aI00
aI01
aI00
aI01
aI00
aI00
aI00
aI00
aI01
aa(lp92
I01
aI01
aI00
aI01
aI01
aI00
aI01
aI01
aI01
aI00
aI01
aI01
aI01
aI00
aI01
aI01
aI01
aI01
aa(lp93
I01
aI00
aI00
aI00
aI01
aI00
aI00
aI00
aI00
aI00
aI01
aI00
aI00
aI00
aI00
aI00
aI00
aI01
aa(lp94
I01
aI00
aI00
aI00
aI00
aI00
aI00
aI01
aI01
aI00
aI00
aI00
aI01
aI00
aI00
aI00
aI00
aI01
aa(lp95
I01
aI00
aI01
aI00
aI00
aI00
aI00
aI01
aI00
aI00
aI01
aI00
aI01
aI01
aI00
aI01
aI01
aI01
aa(lp96
I01
aI00
aI01
aI00
aI01
aI00
aI00
aI00
aI00
aI00
aI01
aI00
aI01
aI00
aI00
aI00
aI00
aI01
aa(lp97
I01
aI01
aI01
aI01
aI01
aI01
aI01
aI01
aI01
aI01
aI01
aI01
aI01
aI01
aI01
aI01
aI01
aI01
aasg49
I18
sbsS'totalFood'
p98
I60
sS'layoutText'
p99
(lp100
S'%%%%%%%%%%%%%%%%%%%%%%%%%%%%%%%%%%'
p101
aS'%..  %     .     .  %  %.%..%  %4%'
p102
aS'%%%    %%% %%%%%    %  ..%%.%  %2%'
p103
aS'%.. .%       ..%    % %%%%  %    %'
p104
aS'%%  %% %%%%%%%%%  %  .         % %'
p105
aS'%      .%    %    %.%%%%%% %% %%%%'
p106
aS'%  . % %% %  % %  % %. %.%..%  ..%'
p107
aS'% %%.%  %.%%%%    % %    %%%%% %%%'
p108
aS'%  % %% % %    %  % %  % % .. .  %'
p109
aS'%  . .. % %  % %  %    % % %% %  %'
p110
aS'%%% %%%%%    % %    %%%%.%  %.%% %'
p111
aS'%..  %..%.% .% %  % %  % %% % .  %'
p112
aS'%%%% %% %%%%%%.%    %    %.      %'
p113
aS'% %         .  %  %%%%%%%%% %%  %%'
p114
aS'%    %  %%%% %    %..       %. ..%'
p115
aS'%1%  %.%%..  %    %%%%% %%%    %%%'
p116
aS'%3%  %..%.%  %  .     .     %  ..%'
p117
aS'%%%%%%%%%%%%%%%%%%%%%%%%%%%%%%%%%%'
p118
asbsS'blueTeamName'
p119
S'Blue'
p120
sS'actions'
p121
(lp122
(I1
S'South'
p123
tp124
a(I2
S'North'
p125
tp126
a(I3
g123
tp127
a(I0
g125
tp128
a(I1
S'West'
p129
tp130
a(I2
g125
tp131
a(I3
g123
tp132
a(I0
S'East'
p133
tp134
a(I1
g129
tp135
a(I2
g133
tp136
a(I3
g129
tp137
a(I0
g133
tp138
a(I1
g129
tp139
a(I2
g133
tp140
a(I3
g129
tp141
a(I0
g125
tp142
a(I1
g123
tp143
a(I2
g125
tp144
a(I3
g129
tp145
a(I0
g133
tp146
a(I1
g129
tp147
a(I2
g133
tp148
a(I3
g123
tp149
a(I0
g133
tp150
a(I1
g129
tp151
a(I2
g133
tp152
a(I3
g129
tp153
a(I0
g133
tp154
a(I1
g129
tp155
a(I2
g133
tp156
a(I3
g133
tp157
a(I0
g133
tp158
a(I1
g129
tp159
a(I2
g133
tp160
a(I3
g129
tp161
a(I0
g133
tp162
a(I1
g129
tp163
a(I2
g133
tp164
a(I3
g129
tp165
a(I0
g133
tp166
a(I1
g129
tp167
a(I2
g133
tp168
a(I3
g133
tp169
a(I0
g133
tp170
a(I1
g129
tp171
a(I2
g133
tp172
a(I3
g129
tp173
a(I0
g133
tp174
a(I1
g129
tp175
a(I2
g133
tp176
a(I3
g133
tp177
a(I0
g133
tp178
a(I1
g129
tp179
a(I2
g133
tp180
a(I3
g129
tp181
a(I0
g133
tp182
a(I1
g129
tp183
a(I2
g133
tp184
a(I3
g129
tp185
a(I0
g133
tp186
a(I1
g125
tp187
a(I2
g133
tp188
a(I3
g129
tp189
a(I0
g123
tp190
a(I1
g125
tp191
a(I2
g123
tp192
a(I3
g129
tp193
a(I0
g133
tp194
a(I1
g125
tp195
a(I2
g123
tp196
a(I3
g129
tp197
a(I0
g123
tp198
a(I1
g129
tp199
a(I2
g123
tp200
a(I3
g129
tp201
a(I0
g133
tp202
a(I1
g129
tp203
a(I2
g133
tp204
a(I3
g129
tp205
a(I0
g133
tp206
a(I1
g129
tp207
a(I2
g133
tp208
a(I3
g129
tp209
a(I0
g123
tp210
a(I1
g129
tp211
a(I2
g133
tp212
a(I3
g129
tp213
a(I0
g133
tp214
a(I1
g129
tp215
a(I2
g133
tp216
a(I3
g123
tp217
a(I0
g133
tp218
a(I1
g129
tp219
a(I2
g133
tp220
a(I3
g123
tp221
a(I0
g133
tp222
a(I1
g129
tp223
a(I2
g133
tp224
a(I3
g123
tp225
a(I0
g133
tp226
a(I1
g129
tp227
a(I2
g129
tp228
a(I3
g123
tp229
a(I0
g133
tp230
a(I1
g129
tp231
a(I2
g129
tp232
a(I3
g123
tp233
a(I0
g133
tp234
a(I1
g123
tp235
a(I2
g129
tp236
a(I3
g123
tp237
a(I0
g125
tp238
a(I1
g123
tp239
a(I2
g125
tp240
a(I3
g123
tp241
a(I0
g125
tp242
a(I1
g133
tp243
a(I2
g129
tp244
a(I3
g123
tp245
a(I0
g133
tp246
a(I1
g133
tp247
a(I2
g125
tp248
a(I3
g129
tp249
a(I0
g133
tp250
a(I1
g133
tp251
a(I2
g125
tp252
a(I3
g129
tp253
a(I0
g133
tp254
a(I1
g133
tp255
a(I2
g125
tp256
a(I3
g123
tp257
a(I0
g133
tp258
a(I1
g129
tp259
a(I2
g125
tp260
a(I3
g123
tp261
a(I0
g125
tp262
a(I1
g129
tp263
a(I2
g125
tp264
a(I3
g123
tp265
a(I0
g125
tp266
a(I1
g129
tp267
a(I2
g125
tp268
a(I3
g123
tp269
a(I0
g133
tp270
a(I1
g129
tp271
a(I2
g125
tp272
a(I3
g133
tp273
a(I0
g133
tp274
a(I1
g129
tp275
a(I2
g125
tp276
a(I3
g133
tp277
a(I0
g125
tp278
a(I1
g129
tp279
a(I2
g125
tp280
a(I3
g133
tp281
a(I0
g125
tp282
a(I1
g129
tp283
a(I2
g125
tp284
a(I3
g133
tp285
a(I0
g125
tp286
a(I1
g129
tp287
a(I2
g125
tp288
a(I3
g133
tp289
a(I0
g125
tp290
a(I1
g123
tp291
a(I2
g125
tp292
a(I3
g133
tp293
a(I0
g133
tp294
a(I1
g123
tp295
a(I2
g125
tp296
a(I3
g125
tp297
a(I0
g125
tp298
a(I1
g133
tp299
a(I2
g125
tp300
a(I3
g125
tp301
a(I0
g125
tp302
a(I1
g129
tp303
a(I2
g129
tp304
a(I3
g133
tp305
a(I0
g133
tp306
a(I1
g129
tp307
a(I2
g129
tp308
a(I3
g133
tp309
a(I0
g133
tp310
a(I1
g129
tp311
a(I2
g129
tp312
a(I3
g133
tp313
a(I0
g129
tp314
a(I1
g123
tp315
a(I2
g129
tp316
a(I3
g133
tp317
a(I0
g129
tp318
a(I1
g129
tp319
a(I2
g129
tp320
a(I3
g125
tp321
a(I0
g123
tp322
a(I1
g133
tp323
a(I2
g129
tp324
a(I3
g125
tp325
a(I0
g123
tp326
a(I1
g123
tp327
a(I2
g129
tp328
a(I3
g133
tp329
a(I0
g129
tp330
a(I1
g123
tp331
a(I2
g129
tp332
a(I3
g133
tp333
a(I0
g129
tp334
a(I1
g123
tp335
a(I2
g129
tp336
a(I3
g125
tp337
a(I0
g133
tp338
a(I1
g129
tp339
a(I2
g129
tp340
a(I3
g125
tp341
a(I0
g133
tp342
a(I1
g133
tp343
a(I2
g123
tp344
a(I3
g125
tp345
a(I0
g125
tp346
a(I1
g133
tp347
a(I2
g123
tp348
a(I3
g125
tp349
a(I0
g125
tp350
a(I1
g133
tp351
a(I2
g123
tp352
a(I3
g133
tp353
a(I0
g129
tp354
a(I1
g129
tp355
a(I2
g123
tp356
a(I3
g125
tp357
a(I0
g125
tp358
a(I1
g129
tp359
a(I2
g129
tp360
a(I3
g125
tp361
a(I0
g125
tp362
a(I1
g133
tp363
a(I2
g129
tp364
a(I3
g129
tp365
a(I0
g129
tp366
a(I1
g133
tp367
a(I2
g123
tp368
a(I3
g125
tp369
a(I0
g129
tp370
a(I1
g133
tp371
a(I2
g123
tp372
a(I3
g125
tp373
a(I0
g129
tp374
a(I1
g125
tp375
a(I2
g123
tp376
a(I3
g129
tp377
a(I0
g129
tp378
a(I1
g125
tp379
a(I2
g123
tp380
a(I3
g129
tp381
a(I0
g129
tp382
a(I1
g129
tp383
a(I2
g133
tp384
a(I3
g129
tp385
a(I0
g129
tp386
a(I1
g125
tp387
a(I2
g133
tp388
a(I3
g129
tp389
a(I0
g129
tp390
a(I1
g125
tp391
a(I2
g133
tp392
a(I3
g129
tp393
a(I0
g129
tp394
a(I1
g125
tp395
a(I2
g129
tp396
a(I3
g129
tp397
a(I0
g129
tp398
a(I1
g125
tp399
a(I2
g129
tp400
a(I3
g129
tp401
a(I0
g129
tp402
a(I1
g125
tp403
a(I2
g129
tp404
a(I3
g129
tp405
a(I0
g125
tp406
a(I1
g129
tp407
a(I2
g129
tp408
a(I3
g129
tp409
a(I0
g129
tp410
a(I1
g129
tp411
a(I2
g123
tp412
a(I3
g129
tp413
a(I0
g129
tp414
a(I1
g123
tp415
a(I2
g125
tp416
a(I3
g125
tp417
a(I0
g129
tp418
a(I1
g125
tp419
a(I2
g129
tp420
a(I3
g123
tp421
a(I0
g123
tp422
a(I1
g133
tp423
a(I2
g129
tp424
a(I3
g123
tp425
a(I0
g123
tp426
a(I1
g133
tp427
a(I2
g125
tp428
a(I3
g123
tp429
a(I0
g129
tp430
a(I1
g125
tp431
a(I2
g125
tp432
a(I3
g123
tp433
a(I0
g133
tp434
a(I1
g133
tp435
a(I2
g125
tp436
a(I3
g125
tp437
a(I0
g125
tp438
a(I1
g133
tp439
a(I2
g125
tp440
a(I3
g125
tp441
a(I0
g133
tp442
a(I1
g133
tp443
a(I2
g133
tp444
a(I3
g125
tp445
a(I0
g125
tp446
a(I1
g133
tp447
a(I2
g125
tp448
a(I3
g125
tp449
a(I0
g123
tp450
a(I1
g133
tp451
a(I2
g125
tp452
a(I3
g129
tp453
a(I0
g123
tp454
a(I1
g133
tp455
a(I2
g123
tp456
a(I3
g129
tp457
a(I0
g129
tp458
a(I1
g133
tp459
a(I2
g133
tp460
a(I3
g133
tp461
a(I0
g129
tp462
a(I1
g133
tp463
a(I2
g125
tp464
a(I3
g133
tp465
a(I0
g133
tp466
a(I1
g133
tp467
a(I2
g133
tp468
a(I3
g125
tp469
a(I0
g123
tp470
a(I1
g133
tp471
a(I2
g125
tp472
a(I3
g123
tp473
a(I0
g123
tp474
a(I1
g133
tp475
a(I2
g123
tp476
a(I3
g123
tp477
a(I0
g123
tp478
a(I1
g123
tp479
a(I2
g129
tp480
a(I3
g133
tp481
a(I0
g123
tp482
a(I1
g123
tp483
a(I2
g123
tp484
a(I3
g129
tp485
a(I0
g123
tp486
a(I1
g123
tp487
a(I2
g123
tp488
a(I3
g125
tp489
a(I0
g123
tp490
a(I1
g123
tp491
a(I2
g123
tp492
a(I3
g123
tp493
a(I0
g123
tp494
a(I1
g123
tp495
a(I2
g133
tp496
a(I3
g123
tp497
a(I0
g123
tp498
a(I1
g123
tp499
a(I2
g123
tp500
a(I3
g123
tp501
a(I0
g123
tp502
a(I1
g129
tp503
a(I2
g123
tp504
a(I3
g123
tp505
a(I0
g129
tp506
a(I1
g129
tp507
a(I2
g123
tp508
a(I3
g123
tp509
a(I0
g133
tp510
a(I1
g129
tp511
a(I2
g129
tp512
a(I3
g125
tp513
a(I0
g125
tp514
a(I1
g123
tp515
a(I2
g123
tp516
a(I3
g125
tp517
a(I0
g125
tp518
a(I1
g123
tp519
a(I2
g123
tp520
a(I3
g125
tp521
a(I0
g125
tp522
a(I1
g123
tp523
a(I2
g133
tp524
a(I3
g123
tp525
a(I0
g133
tp526
a(I1
g123
tp527
a(I2
g123
tp528
a(I3
g123
tp529
a(I0
g125
tp530
a(I1
g123
tp531
a(I2
g123
tp532
a(I3
g123
tp533
a(I0
g133
tp534
a(I1
g123
tp535
a(I2
g133
tp536
a(I3
g123
tp537
a(I0
g129
tp538
a(I1
g129
tp539
a(I2
g133
tp540
a(I3
g123
tp541
a(I0
g125
tp542
a(I1
g129
tp543
a(I2
g133
tp544
a(I3
g129
tp545
a(I0
g129
tp546
a(I1
g123
tp547
a(I2
g133
tp548
a(I3
g133
tp549
a(I0
g125
tp550
a(I1
g123
tp551
a(I2
g133
tp552
a(I3
g125
tp553
a(I0
g125
tp554
a(I1
g129
tp555
a(I2
g133
tp556
a(I3
g133
tp557
a(I0
g129
tp558
a(I1
g129
tp559
a(I2
g133
tp560
a(I3
g129
tp561
a(I0
g133
tp562
a(I1
g129
tp563
a(I2
g133
tp564
a(I3
g125
tp565
a(I0
g125
tp566
a(I1
g123
tp567
a(I2
g129
tp568
a(I3
g123
tp569
a(I0
g133
tp570
a(I1
g125
tp571
a(I2
g133
tp572
a(I3
g123
tp573
a(I0
g125
tp574
a(I1
S'Stop'
p575
tp576
a(I2
g123
tp577
a(I3
g125
tp578
a(I0
g125
tp579
a(I1
g575
tp580
a(I2
g123
tp581
a(I3
g133
tp582
a(I0
g125
tp583
a(I1
g575
tp584
a(I2
g129
tp585
a(I3
g133
tp586
a(I0
g125
tp587
a(I1
g575
tp588
a(I2
g129
tp589
a(I3
g125
tp590
a(I0
g125
tp591
a(I1
g575
tp592
a(I2
g129
tp593
a(I3
g123
tp594
a(I0
g133
tp595
a(I1
g123
tp596
a(I2
g133
tp597
a(I3
g129
tp598
a(I0
g123
tp599
a(I1
g129
tp600
a(I2
g133
tp601
a(I3
g129
tp602
a(I0
g133
tp603
a(I1
g129
tp604
a(I2
g133
tp605
a(I3
g125
tp606
a(I0
g123
tp607
a(I1
g123
tp608
a(I2
g125
tp609
a(I3
g125
tp610
a(I0
g123
tp611
a(I1
g129
tp612
a(I2
g125
tp613
a(I3
g125
tp614
a(I0
g125
tp615
a(I1
g123
tp616
a(I2
g129
tp617
a(I3
g125
tp618
a(I0
g129
tp619
a(I1
g123
tp620
a(I2
g129
tp621
a(I3
g125
tp622
a(I0
g125
tp623
a(I1
g133
tp624
a(I2
g129
tp625
a(I3
g125
tp626
a(I0
g129
tp627
a(I1
g133
tp628
a(I2
g129
tp629
a(I3
g125
tp630
a(I0
g125
tp631
a(I1
g133
tp632
a(I2
g129
tp633
a(I3
g125
tp634
a(I0
g129
tp635
a(I1
g129
tp636
a(I2
g125
tp637
a(I3
g123
tp638
a(I0
g129
tp639
a(I1
g129
tp640
a(I2
g125
tp641
a(I3
g123
tp642
a(I0
g133
tp643
a(I1
g123
tp644
a(I2
g123
tp645
a(I3
g123
tp646
a(I0
g123
tp647
a(I1
g123
tp648
a(I2
g123
tp649
a(I3
g123
tp650
a(I0
g123
tp651
a(I1
g129
tp652
a(I2
g133
tp653
a(I3
g125
tp654
a(I0
g123
tp655
a(I1
g123
tp656
a(I2
g133
tp657
a(I3
g125
tp658
a(I0
g123
tp659
a(I1
g123
tp660
a(I2
g133
tp661
a(I3
g123
tp662
a(I0
g123
tp663
a(I1
g123
tp664
a(I2
g133
tp665
a(I3
g133
tp666
a(I0
g123
tp667
a(I1
g123
tp668
a(I2
g133
tp669
a(I3
g129
tp670
a(I0
g123
tp671
a(I1
g129
tp672
a(I2
g133
tp673
a(I3
g133
tp674
a(I0
g123
tp675
a(I1
g129
tp676
a(I2
g133
tp677
a(I3
g129
tp678
a(I0
g123
tp679
a(I1
g123
tp680
a(I2
g123
tp681
a(I3
g133
tp682
a(I0
g123
tp683
a(I1
g123
tp684
a(I2
g133
tp685
a(I3
g129
tp686
a(I0
g123
tp687
a(I1
g123
tp688
a(I2
g133
tp689
a(I3
g133
tp690
a(I0
g123
tp691
a(I1
g123
tp692
a(I2
g133
tp693
a(I3
g133
tp694
a(I0
g123
tp695
a(I1
g129
tp696
a(I2
g125
tp697
a(I3
g125
tp698
a(I0
g129
tp699
a(I1
g129
tp700
a(I2
g125
tp701
a(I3
g125
tp702
a(I0
g133
tp703
a(I1
g129
tp704
a(I2
g133
tp705
a(I3
g125
tp706
a(I0
g133
tp707
a(I1
g129
tp708
a(I2
g133
tp709
a(I3
g575
tp710
a(I0
g125
tp711
a(I1
g129
tp712
a(I2
g125
tp713
a(I3
g575
tp714
a(I0
g125
tp715
a(I1
g129
tp716
a(I2
g125
tp717
a(I3
g575
tp718
a(I0
g125
tp719
a(I1
g129
tp720
a(I2
g125
tp721
a(I3
g575
tp722
a(I0
g125
tp723
a(I1
g129
tp724
a(I2
g125
tp725
a(I3
g575
tp726
a(I0
g133
tp727
a(I1
g129
tp728
a(I2
g125
tp729
a(I3
g575
tp730
a(I0
g133
tp731
a(I1
g129
tp732
a(I2
g125
tp733
a(I3
g575
tp734
a(I0
g125
tp735
a(I1
g129
tp736
a(I2
g123
tp737
a(I3
g575
tp738
a(I0
g125
tp739
a(I1
g125
tp740
a(I2
g123
tp741
a(I3
g575
tp742
a(I0
g125
tp743
a(I1
g125
tp744
a(I2
g123
tp745
a(I3
g575
tp746
a(I0
g125
tp747
a(I1
g129
tp748
a(I2
g123
tp749
a(I3
g575
tp750
a(I0
g125
tp751
a(I1
g129
tp752
a(I2
g123
tp753
a(I3
g123
tp754
a(I0
g123
tp755
a(I1
g125
tp756
a(I2
g123
tp757
a(I3
g123
tp758
a(I0
g123
tp759
a(I1
g129
tp760
a(I2
g129
tp761
a(I3
g123
tp762
a(I0
g123
tp763
a(I1
g129
tp764
a(I2
g129
tp765
a(I3
g129
tp766
a(I0
g123
tp767
a(I1
g129
tp768
a(I2
g123
tp769
a(I3
g129
tp770
a(I0
g123
tp771
a(I1
g129
tp772
a(I2
g123
tp773
a(I3
g123
tp774
a(I0
g129
tp775
a(I1
g129
tp776
a(I2
g129
tp777
a(I3
g575
tp778
a(I0
g129
tp779
a(I1
g129
tp780
a(I2
g129
tp781
a(I3
g575
tp782
a(I0
g129
tp783
a(I1
g129
tp784
a(I2
g129
tp785
a(I3
g125
tp786
a(I0
g123
tp787
a(I1
g123
tp788
a(I2
g125
tp789
a(I3
g125
tp790
a(I0
g123
tp791
a(I1
g129
tp792
a(I2
g129
tp793
a(I3
g123
tp794
a(I0
g123
tp795
a(I1
g123
tp796
a(I2
g129
tp797
a(I3
g123
tp798
a(I0
g123
tp799
a(I1
g123
tp800
a(I2
g129
tp801
a(I3
g125
tp802
a(I0
g129
tp803
a(I1
g133
tp804
a(I2
g129
tp805
a(I3
g123
tp806
a(I0
g133
tp807
a(I1
g129
tp808
a(I2
g129
tp809
a(I3
g123
tp810
a(I0
g133
tp811
a(I1
g125
tp812
a(I2
g129
tp813
a(I3
g123
tp814
a(I0
g125
tp815
a(I1
g125
tp816
a(I2
g129
tp817
a(I3
g123
tp818
a(I0
g125
tp819
a(I1
g125
tp820
a(I2
g129
tp821
a(I3
g123
tp822
a(I0
g133
tp823
a(I1
g123
tp824
a(I2
g133
tp825
a(I3
g123
tp826
a(I0
g129
tp827
a(I1
g129
tp828
a(I2
g125
tp829
a(I3
g123
tp830
a(I0
g123
tp831
a(I1
g129
tp832
a(I2
g125
tp833
a(I3
g123
tp834
a(I0
g123
tp835
a(I1
g123
tp836
a(I2
g123
tp837
a(I3
g129
tp838
a(I0
g129
tp839
a(I1
g129
tp840
a(I2
g123
tp841
a(I3
g133
tp842
a(I0
g129
tp843
a(I1
g123
tp844
a(I2
g133
tp845
a(I3
g125
tp846
a(I0
g133
tp847
a(I1
g123
tp848
a(I2
g133
tp849
a(I3
g123
tp850
a(I0
g133
tp851
a(I1
g133
tp852
a(I2
g133
tp853
a(I3
g129
tp854
a(I0
g129
tp855
a(I1
g133
tp856
a(I2
g133
tp857
a(I3
g129
tp858
a(I0
g129
tp859
a(I1
g133
tp860
a(I2
g133
tp861
a(I3
g125
tp862
a(I0
g133
tp863
a(I1
g129
tp864
a(I2
g133
tp865
a(I3
g125
tp866
a(I0
g125
tp867
a(I1
g129
tp868
a(I2
g133
tp869
a(I3
g133
tp870
a(I0
g125
tp871
a(I1
g129
tp872
a(I2
g123
tp873
a(I3
g133
tp874
a(I0
g125
tp875
a(I1
g125
tp876
a(I2
g133
tp877
a(I3
g123
tp878
a(I0
g125
tp879
a(I1
g125
tp880
a(I2
g133
tp881
a(I3
g125
tp882
a(I0
g125
tp883
a(I1
g129
tp884
a(I2
g125
tp885
a(I3
g123
tp886
a(I0
g125
tp887
a(I1
g129
tp888
a(I2
g133
tp889
a(I3
g123
tp890
a(I0
g125
tp891
a(I1
g129
tp892
a(I2
g125
tp893
a(I3
g129
tp894
a(I0
g129
tp895
a(I1
g129
tp896
a(I2
g125
tp897
a(I3
g129
tp898
a(I0
g133
tp899
a(I1
g129
tp900
a(I2
g125
tp901
a(I3
g125
tp902
a(I0
g133
tp903
a(I1
g129
tp904
a(I2
g133
tp905
a(I3
g125
tp906
a(I0
g129
tp907
a(I1
g129
tp908
a(I2
g133
tp909
a(I3
g133
tp910
a(I0
g129
tp911
a(I1
g129
tp912
a(I2
g125
tp913
a(I3
g133
tp914
a(I0
g133
tp915
a(I1
g129
tp916
a(I2
g133
tp917
a(I3
g125
tp918
a(I0
g133
tp919
a(I1
g129
tp920
a(I2
g133
tp921
a(I3
g133
tp922
a(I0
g123
tp923
a(I1
g125
tp924
a(I2
g125
tp925
a(I3
g133
tp926
a(I0
g123
tp927
a(I1
g129
tp928
a(I2
g125
tp929
a(I3
g125
tp930
a(I0
g123
tp931
a(I1
g129
tp932
a(I2
g125
tp933
a(I3
g125
tp934
a(I0
g133
tp935
a(I1
g123
tp936
a(I2
g133
tp937
a(I3
g125
tp938
a(I0
g133
tp939
a(I1
g123
tp940
a(I2
g123
tp941
a(I3
g123
tp942
a(I0
g125
tp943
a(I1
g123
tp944
a(I2
g133
tp945
a(I3
g133
tp946
a(I0
g133
tp947
a(I1
g123
tp948
a(I2
g133
tp949
a(I3
g133
tp950
a(I0
g133
tp951
a(I1
g129
tp952
a(I2
g125
tp953
a(I3
g133
tp954
a(I0
g125
tp955
a(I1
g129
tp956
a(I2
g123
tp957
a(I3
g129
tp958
a(I0
g123
tp959
a(I1
g129
tp960
a(I2
g125
tp961
a(I3
g129
tp962
a(I0
g129
tp963
a(I1
g123
tp964
a(I2
g125
tp965
a(I3
g123
tp966
a(I0
g129
tp967
a(I1
g129
tp968
a(I2
g133
tp969
a(I3
g123
tp970
a(I0
g123
tp971
a(I1
g129
tp972
a(I2
g133
tp973
a(I3
g129
tp974
a(I0
g129
tp975
a(I1
g123
tp976
a(I2
g133
tp977
a(I3
g129
tp978
a(I0
g129
tp979
a(I1
g123
tp980
a(I2
g125
tp981
a(I3
g129
tp982
a(I0
g125
tp983
a(I1
g123
tp984
a(I2
g133
tp985
a(I3
g123
tp986
a(I0
g125
tp987
a(I1
g129
tp988
a(I2
g133
tp989
a(I3
g129
tp990
a(I0
g129
tp991
a(I1
g125
tp992
a(I2
g133
tp993
a(I3
g133
tp994
a(I0
g125
tp995
a(I1
g129
tp996
a(I2
g133
tp997
a(I3
g123
tp998
a(I0
g129
tp999
a(I1
g129
tp1000
a(I2
g133
tp1001
a(I3
g575
tp1002
a(I0
g133
tp1003
a(I1
g123
tp1004
a(I2
g133
tp1005
a(I3
g123
tp1006
a(I0
g133
tp1007
a(I1
g125
tp1008
a(I2
g133
tp1009
a(I3
g129
tp1010
a(I0
g123
tp1011
a(I1
g125
tp1012
a(I2
g133
tp1013
a(I3
g129
tp1014
a(I0
g123
tp1015
a(I1
g125
tp1016
a(I2
g133
tp1017
a(I3
g125
tp1018
a(I0
g125
tp1019
a(I1
g125
tp1020
a(I2
g129
tp1021
a(I3
g125
tp1022
a(I0
g129
tp1023
a(I1
g123
tp1024
a(I2
g123
tp1025
a(I3
g133
tp1026
a(I0
g125
tp1027
a(I1
g123
tp1028
a(I2
g123
tp1029
a(I3
g133
tp1030
a(I0
g129
tp1031
a(I1
g123
tp1032
a(I2
g129
tp1033
a(I3
g125
tp1034
a(I0
g133
tp1035
a(I1
g133
tp1036
a(I2
g129
tp1037
a(I3
g125
tp1038
a(I0
g133
tp1039
a(I1
g133
tp1040
a(I2
g129
tp1041
a(I3
g123
tp1042
a(I0
g123
tp1043
a(I1
g125
tp1044
a(I2
g133
tp1045
a(I3
g123
tp1046
a(I0
g123
tp1047
a(I1
g125
tp1048
a(I2
g133
tp1049
a(I3
g129
tp1050
a(I0
g129
tp1051
a(I1
g133
tp1052
a(I2
g133
tp1053
a(I3
g133
tp1054
a(I0
g125
tp1055
a(I1
g133
tp1056
a(I2
g125
tp1057
a(I3
g125
tp1058
a(I0
g125
tp1059
a(I1
g133
tp1060
a(I2
g125
tp1061
a(I3
g125
tp1062
a(I0
g129
tp1063
a(I1
g125
tp1064
a(I2
g133
tp1065
a(I3
g123
tp1066
a(I0
g133
tp1067
a(I1
g125
tp1068
a(I2
g133
tp1069
a(I3
g125
tp1070
a(I0
g133
tp1071
a(I1
g123
tp1072
a(I2
g125
tp1073
a(I3
g123
tp1074
a(I0
g123
tp1075
a(I1
g133
tp1076
a(I2
g125
tp1077
a(I3
g123
tp1078
a(I0
g123
tp1079
a(I1
g133
tp1080
a(I2
g125
tp1081
a(I3
g129
tp1082
a(I0
g125
tp1083
a(I1
g123
tp1084
a(I2
g125
tp1085
a(I3
g129
tp1086
a(I0
g125
tp1087
a(I1
g123
tp1088
a(I2
g125
tp1089
a(I3
g125
tp1090
a(I0
g129
tp1091
a(I1
g125
tp1092
a(I2
g125
tp1093
a(I3
g123
tp1094
a(I0
g129
tp1095
a(I1
g125
tp1096
a(I2
g133
tp1097
a(I3
g133
tp1098
a(I0
g129
tp1099
a(I1
g125
tp1100
a(I2
g133
tp1101
a(I3
g133
tp1102
a(I0
g123
tp1103
a(I1
g125
tp1104
a(I2
g133
tp1105
a(I3
g129
tp1106
a(I0
g123
tp1107
a(I1
g123
tp1108
a(I2
g123
tp1109
a(I3
g129
tp1110
a(I0
g123
tp1111
a(I1
g123
tp1112
a(I2
g123
tp1113
a(I3
g125
tp1114
a(I0
g123
tp1115
a(I1
g123
tp1116
a(I2
g125
tp1117
a(I3
g123
tp1118
a(I0
g123
tp1119
a(I1
g123
tp1120
a(I2
g125
tp1121
a(I3
g133
tp1122
a(I0
g123
tp1123
a(I1
g123
tp1124
a(I2
g133
tp1125
a(I3
g133
tp1126
a(I0
g123
tp1127
a(I1
g123
tp1128
a(I2
g133
tp1129
a(I3
g575
tp1130
a(I0
g133
tp1131
a(I1
g123
tp1132
a(I2
g133
tp1133
a(I3
g125
tp1134
a(I0
g133
tp1135
a(I1
g125
tp1136
a(I2
g125
tp1137
a(I3
g125
tp1138
a(I0
g133
tp1139
a(I1
g123
tp1140
a(I2
g133
tp1141
a(I3
g123
tp1142
a(I0
g123
tp1143
a(I1
g123
tp1144
a(I2
g133
tp1145
a(I3
g123
tp1146
a(I0
g123
tp1147
a(I1
g123
tp1148
a(I2
g133
tp1149
a(I3
g123
tp1150
a(I0
g133
tp1151
a(I1
g129
tp1152
a(I2
g133
tp1153
a(I3
g123
tp1154
a(I0
g133
tp1155
a(I1
g129
tp1156
a(I2
g133
tp1157
a(I3
g129
tp1158
a(I0
g133
tp1159
a(I1
g125
tp1160
a(I2
g133
tp1161
a(I3
g133
tp1162
a(I0
g133
tp1163
a(I1
g129
tp1164
a(I2
g133
tp1165
a(I3
g125
tp1166
a(I0
g133
tp1167
a(I1
g133
tp1168
a(I2
g133
tp1169
a(I3
g125
tp1170
a(I0
g133
tp1171
a(I1
g125
tp1172
a(I2
g133
tp1173
a(I3
g125
tp1174
a(I0
g125
tp1175
a(I1
g125
tp1176
a(I2
g133
tp1177
a(I3
g125
tp1178
a(I0
g125
tp1179
a(I1
g125
tp1180
a(I2
g125
tp1181
a(I3
g125
tp1182
a(I0
g129
tp1183
a(I1
g125
tp1184
a(I2
g125
tp1185
a(I3
g125
tp1186
a(I0
g129
tp1187
a(I1
g125
tp1188
a(I2
g125
tp1189
a(I3
g125
tp1190
a(I0
g129
tp1191
a(I1
g125
tp1192
a(I2
g125
tp1193
a(I3
g123
tp1194
a(I0
g133
tp1195
a(I1
g125
tp1196
a(I2
g125
tp1197
a(I3
g123
tp1198
a(I0
g133
tp1199
a(I1
g125
tp1200
a(I2
g125
tp1201
a(I3
g123
tp1202
a(I0
g133
tp1203
a(I1
g133
tp1204
a(I2
g125
tp1205
a(I3
g123
tp1206
a(I0
g133
tp1207
a(I1
g133
tp1208
a(I2
g125
tp1209
a(I3
g133
tp1210
a(I0
g133
tp1211
a(I1
g125
tp1212
a(I2
g133
tp1213
a(I3
g133
tp1214
a(I0
g133
tp1215
a(I1
g125
tp1216
a(I2
g133
tp1217
a(I3
g125
tp1218
a(I0
g133
tp1219
a(I1
g125
tp1220
a(I2
g133
tp1221
a(I3
g123
tp1222
a(I0
g125
tp1223
a(I1
g125
tp1224
a(I2
g123
tp1225
a(I3
g125
tp1226
a(I0
g125
tp1227
a(I1
g129
tp1228
a(I2
g123
tp1229
a(I3
g123
tp1230
a(I0
g129
tp1231
a(I1
g129
tp1232
a(I2
g123
tp1233
a(I3
g129
tp1234
a(I0
g133
tp1235
a(I1
g129
tp1236
a(I2
g123
tp1237
a(I3
g129
tp1238
a(I0
g133
tp1239
a(I1
g129
tp1240
a(I2
g123
tp1241
a(I3
g123
tp1242
a(I0
g133
tp1243
a(I1
g129
tp1244
a(I2
g123
tp1245
a(I3
g129
tp1246
a(I0
g125
tp1247
a(I1
g129
tp1248
a(I2
g123
tp1249
a(I3
g129
tp1250
a(I0
g133
tp1251
a(I1
g129
tp1252
a(I2
g123
tp1253
a(I3
g123
tp1254
a(I0
g123
tp1255
a(I1
g129
tp1256
a(I2
g123
tp1257
a(I3
g123
tp1258
a(I0
g123
tp1259
a(I1
g129
tp1260
a(I2
g123
tp1261
a(I3
g123
tp1262
a(I0
g123
tp1263
a(I1
g129
tp1264
a(I2
g123
tp1265
a(I3
g123
tp1266
a(I0
g129
tp1267
a(I1
g123
tp1268
a(I2
g133
tp1269
a(I3
g123
tp1270
a(I0
g133
tp1271
a(I1
g129
tp1272
a(I2
g133
tp1273
a(I3
g123
tp1274
a(I0
g133
tp1275
a(I1
g129
tp1276
a(I2
g133
tp1277
a(I3
g133
tp1278
a(I0
g133
tp1279
a(I1
g123
tp1280
a(I2
g133
tp1281
a(I3
g133
tp1282
a(I0
g129
tp1283
a(I1
g129
tp1284
a(I2
g133
tp1285
a(I3
g133
tp1286
a(I0
g129
tp1287
a(I1
g129
tp1288
a(I2
g129
tp1289
a(I3
g133
tp1290
a(I0
g123
tp1291
a(I1
g129
tp1292
a(I2
g125
tp1293
a(I3
g133
tp1294
a(I0
g123
tp1295
a(I1
g133
tp1296
a(I2
g125
tp1297
a(I3
g133
tp1298
a(I0
g133
tp1299
a(I1
g133
tp1300
a(I2
g133
tp1301
a(I3
g133
tp1302
a(I0
g133
tp1303
a(I1
g125
tp1304
a(I2
g133
tp1305
a(I3
g133
tp1306
a(I0
g129
tp1307
a(I1
g125
tp1308
a(I2
g133
tp1309
a(I3
g133
tp1310
a(I0
g129
tp1311
a(I1
g129
tp1312
a(I2
g125
tp1313
a(I3
g133
tp1314
a(I0
g125
tp1315
a(I1
g129
tp1316
a(I2
g125
tp1317
a(I3
g125
tp1318
a(I0
g123
tp1319
a(I1
g133
tp1320
a(I2
g125
tp1321
a(I3
g133
tp1322
a(I0
g133
tp1323
a(I1
g133
tp1324
a(I2
g129
tp1325
a(I3
g133
tp1326
a(I0
g133
tp1327
asS'length'
p1328
I1200
sS'agents'
p1329
(lp1330
(igame
Agent
p1331
(dp1332
S'index'
p1333
I0
sba(igame
Agent
p1334
(dp1335
g1333
I0
sba(igame
Agent
p1336
(dp1337
g1333
I0
sba(igame
Agent
p1338
(dp1339
g1333
I0
sbasS'redTeamName'
p1340
S'Red'
p1341
s.