(dp1
S'layout'
p2
(ilayout
Layout
p3
(dp4
S'capsules'
p5
(lp6
(I28
I5
tp7
a(I28
I8
tp8
a(I5
I9
tp9
a(I5
I12
tp10
asS'numGhosts'
p11
I4
sS'food'
p12
(igame
Grid
p13
(dp14
S'CELLS_PER_INT'
p15
I30
sS'width'
p16
I34
sS'data'
p17
(lp18
(lp19
I00
aI00
aI00
aI00
aI00
aI00
aI00
aI00
aI00
aI00
aI00
aI00
aI00
aI00
aI00
aI00
aI00
aI00
aa(lp20
I00
aI00
aI00
aI00
aI00
aI00
aI00
aI00
aI00
aI00
aI00
aI00
aI00
aI00
aI00
aI00
aI00
aI00
aa(lp21
I00
aI00
aI00
aI00
aI00
aI00
aI00
aI00
aI00
aI00
aI00
aI00
aI00
aI00
aI00
aI00
aI00
aI00
aa(lp22
I00
aI00
aI00
aI00
aI00
aI00
aI00
aI00
aI00
aI00
aI00
aI00
aI00
aI00
aI00
aI00
aI00
aI00
aa(lp23
I00
aI00
aI00
aI00
aI00
aI00
aI00
aI00
aI00
aI00
aI00
aI00
aI00
aI00
aI00
aI00
aI00
aI00
aa(lp24
I00
aI00
aI00
aI00
aI00
aI00
aI00
aI00
aI00
aI00
aI00
aI00
aI00
aI00
aI00
aI00
aI01
aI00
aa(lp25
I00
aI00
aI00
aI00
aI00
aI00
aI00
aI00
aI00
aI01
aI00
aI01
aI00
aI01
aI00
aI00
aI00
aI00
aa(lp26
I00
aI01
aI01
aI00
aI01
aI01
aI01
aI01
aI00
aI00
aI00
aI00
aI00
aI00
aI00
aI00
aI00
aI00
aa(lp27
I00
aI00
aI00
aI00
aI00
aI00
aI00
aI00
aI00
aI00
aI00
aI01
aI01
aI00
aI00
aI00
aI00
aI00
aa(lp28
I00
aI01
aI01
aI00
aI00
aI00
aI00
aI00
aI01
aI00
aI00
aI00
aI00
aI00
aI00
aI00
aI01
aI00
aa(lp29
I00
aI00
aI00
aI00
aI00
aI00
aI00
aI00
aI00
aI00
aI00
aI00
aI00
aI00
aI00
aI00
aI00
aI00
aa(lp30
I00
aI01
aI01
aI00
aI01
aI00
aI01
aI00
aI00
aI01
aI01
aI01
aI00
aI00
aI00
aI00
aI01
aI00
aa(lp31
I00
aI00
aI00
aI00
aI00
aI00
aI00
aI00
aI00
aI00
aI00
aI00
aI00
aI01
aI00
aI00
aI00
aI00
aa(lp32
I00
aI01
aI01
aI00
aI00
aI00
aI00
aI00
aI01
aI00
aI00
aI01
aI00
aI00
aI00
aI00
aI00
aI00
aa(lp33
I00
aI00
aI00
aI00
aI00
aI00
aI00
aI00
aI01
aI00
aI00
aI00
aI00
aI00
aI00
aI00
aI00
aI00
aa(lp34
I00
aI00
aI00
aI00
aI00
aI00
aI00
aI00
aI00
aI00
aI00
aI00
aI00
aI00
aI00
aI00
aI00
aI00
aa(lp35
I00
aI00
aI00
aI00
aI00
aI00
aI00
aI00
aI00
aI00
aI00
aI00
aI00
aI00
aI00
aI00
aI00
aI00
aa(lp36
I00
aI00
aI00
aI00
aI00
aI00
aI00
aI00
aI00
aI00
aI00
aI00
aI00
aI00
aI00
aI00
aI00
aI00
aa(lp37
I00
aI00
aI00
aI00
aI00
aI00
aI00
aI00
aI00
aI00
aI00
aI00
aI00
aI00
aI00
aI00
aI00
aI00
aa(lp38
I00
aI00
aI00
aI00
aI00
aI00
aI00
aI00
aI00
aI01
aI00
aI00
aI00
aI00
aI00
aI00
aI00
aI00
aa(lp39
I00
aI00
aI00
aI00
aI00
aI00
aI01
aI00
aI00
aI01
aI00
aI00
aI00
aI00
aI00
aI01
aI01
aI00
aa(lp40
I00
aI00
aI00
aI00
aI01
aI00
aI00
aI00
aI00
aI00
aI00
aI00
aI00
aI00
aI00
aI00
aI00
aI00
aa(lp41
I00
aI01
aI00
aI00
aI00
aI00
aI01
aI01
aI01
aI00
aI00
aI01
aI00
aI01
aI00
aI01
aI01
aI00
aa(lp42
I00
aI00
aI00
aI00
aI00
aI00
aI00
aI00
aI00
aI00
aI00
aI00
aI00
aI00
aI00
aI00
aI00
aI00
aa(lp43
I00
aI01
aI00
aI00
aI00
aI00
aI00
aI00
aI00
aI01
aI00
aI00
aI00
aI00
aI00
aI01
aI01
aI00
aa(lp44
I00
aI00
aI00
aI00
aI00
aI01
aI01
aI00
aI00
aI00
aI00
aI00
aI00
aI00
aI00
aI00
aI00
aI00
aa(lp45
I00
aI00
aI00
aI00
aI00
aI00
aI00
aI00
aI00
aI00
aI01
aI01
aI01
aI01
aI00
aI01
aI01
aI00
aa(lp46
I00
aI00
aI00
aI00
aI01
aI00
aI01
aI00
aI01
aI00
aI00
aI00
aI00
aI00
aI00
aI00
aI00
aI00
aa(lp47
I00
aI01
aI00
aI00
aI00
aI00
aI00
aI00
aI00
aI00
aI00
aI00
aI00
aI00
aI00
aI00
aI00
aI00
aa(lp48
I00
aI00
aI00
aI00
aI00
aI00
aI00
aI00
aI00
aI00
aI00
aI00
aI00
aI00
aI00
aI00
aI00
aI00
aa(lp49
I00
aI00
aI00
aI00
aI00
aI00
aI00
aI00
aI00
aI00
aI00
aI00
aI00
aI00
aI00
aI00
aI00
aI00
aa(lp50
I00
aI00
aI00
aI00
aI00
aI00
aI00
aI00
aI00
aI00
aI00
aI00
aI00
aI00
aI00
aI00
aI00
aI00
aa(lp51
I00
aI00
aI00
aI00
aI00
aI00
aI00
aI00
aI00
aI00
aI00
aI00
aI00
aI00
aI00
aI00
aI00
aI00
aa(lp52
I00
aI00
aI00
aI00
aI00
aI00
aI00
aI00
aI00
aI00
aI00
aI00
aI00
aI00
aI00
aI00
aI00
aI00
aasS'height'
p53
I18
sbsS'agentPositions'
p54
(lp55
(I00
(I1
I2
tp56
tp57
a(I00
(I32
I15
tp58
tp59
a(I00
(I1
I1
tp60
tp61
a(I00
(I32
I16
tp62
tp63
asg53
I18
sg16
I34
sS'walls'
p64
(igame
Grid
p65
(dp66
g15
I30
sg16
I34
sg17
(lp67
(lp68
I01
aI01
aI01
aI01
aI01
aI01
aI01
aI01
aI01
aI01
aI01
aI01
aI01
aI01
aI01
aI01
aI01
aI01
aa(lp69
I01
aI00
aI00
aI00
aI00
aI00
aI00
aI00
aI00
aI00
aI00
aI00
aI00
aI00
aI00
aI00
aI00
aI01
aa(lp70
I01
aI01
aI01
aI01
aI01
aI01
aI01
aI01
aI01
aI01
aI01
aI01
aI01
aI01
aI01
aI01
aI00
aI01
aa(lp71
I01
aI00
aI00
aI00
aI00
aI00
aI00
aI00
aI00
aI00
aI00
aI00
aI00
aI00
aI00
aI00
aI00
aI01
aa(lp72
I01
aI00
aI01
aI01
aI01
aI01
aI01
aI01
aI01
aI01
aI01
aI01
aI01
aI01
aI01
aI01
aI01
aI01
aa(lp73
I01
aI00
aI00
aI00
aI00
aI00
aI00
aI00
aI00
aI00
aI00
aI00
aI00
aI00
aI00
aI00
aI00
aI01
aa(lp74
I01
aI01
aI00
aI01
aI01
aI01
aI00
aI01
aI01
aI00
aI01
aI00
aI01
aI00
aI01
aI00
aI00
aI01
aa(lp75
I01
aI00
aI00
aI01
aI00
aI00
aI00
aI00
aI01
aI00
aI01
aI01
aI01
aI01
aI01
aI01
aI01
aI01
aa(lp76
I01
aI01
aI01
aI01
aI01
aI01
aI00
aI01
aI01
aI00
aI01
aI00
aI00
aI00
aI00
aI00
aI00
aI01
aa(lp77
I01
aI00
aI00
aI00
aI00
aI00
aI00
aI00
aI00
aI00
aI00
aI00
aI00
aI00
aI00
aI00
aI00
aI01
aa(lp78
I01
aI01
aI01
aI01
aI01
aI01
aI01
aI01
aI01
aI01
aI01
aI00
aI01
aI01
aI00
aI00
aI01
aI01
aa(lp79
I01
aI00
aI00
aI00
aI00
aI00
aI00
aI00
aI00
aI00
aI00
aI00
aI00
aI00
aI00
aI00
aI00
aI01
aa(lp80
I01
aI01
aI01
aI01
aI01
aI01
aI01
aI00
aI01
aI01
aI01
aI01
aI01
aI00
aI01
aI01
aI01
aI01
aa(lp81
I01
aI00
aI00
aI00
aI00
aI00
aI00
aI00
aI00
aI01
aI00
aI00
aI00
aI00
aI00
aI00
aI00
aI01
aa(lp82
I01
aI01
aI01
aI00
aI01
aI01
aI01
aI01
aI00
aI00
aI00
aI00
aI00
aI00
aI00
aI01
aI00
aI01
aa(lp83
I01
aI00
aI00
aI00
aI00
aI00
aI00
aI00
aI00
aI01
aI00
aI01
aI00
aI01
aI01
aI01
aI00
aI01
aa(lp84
I01
aI00
aI00
aI00
aI00
aI00
aI01
aI00
aI00
aI01
aI00
aI01
aI00
aI00
aI00
aI01
aI00
aI01
aa(lp85
I01
aI00
aI01
aI00
aI00
aI00
aI01
aI00
aI01
aI00
aI00
aI01
aI00
aI00
aI00
aI00
aI00
aI01
aa(lp86
I01
aI00
aI01
aI01
aI01
aI00
aI01
aI00
aI01
aI00
aI00
aI00
aI00
aI00
aI00
aI00
aI00
aI01
aa(lp87
I01
aI00
aI01
aI00
aI00
aI00
aI00
aI00
aI00
aI00
aI01
aI01
aI01
aI01
aI00
aI01
aI01
aI01
aa(lp88
I01
aI00
aI00
aI00
aI00
aI00
aI00
aI00
aI01
aI00
aI00
aI00
aI00
aI00
aI00
aI00
aI00
aI01
aa(lp89
I01
aI01
aI01
aI01
aI00
aI01
aI01
aI01
aI01
aI01
aI00
aI01
aI01
aI01
aI01
aI01
aI01
aI01
aa(lp90
I01
aI00
aI00
aI00
aI00
aI00
aI00
aI00
aI00
aI00
aI00
aI00
aI00
aI00
aI00
aI00
aI00
aI01
aa(lp91
I01
aI01
aI00
aI00
aI01
aI01
aI00
aI01
aI01
aI01
aI01
aI01
aI01
aI01
aI01
aI01
aI01
aI01
aa(lp92
I01
aI00
aI00
aI00
aI00
aI00
aI00
aI00
aI00
aI00
aI00
aI00
aI00
aI00
aI00
aI00
aI00
aI01
aa(lp93
I01
aI00
aI00
aI00
aI00
aI00
aI00
aI01
aI00
aI01
aI01
aI00
aI01
aI01
aI01
aI01
aI01
aI01
aa(lp94
I01
aI01
aI01
aI01
aI01
aI01
aI01
aI01
aI00
aI01
aI00
aI00
aI00
aI00
aI01
aI00
aI00
aI01
aa(lp95
I01
aI00
aI00
aI01
aI00
aI01
aI00
aI01
aI00
aI01
aI01
aI00
aI01
aI01
aI01
aI00
aI01
aI01
aa(lp96
I01
aI00
aI00
aI00
aI00
aI00
aI00
aI00
aI00
aI00
aI00
aI00
aI00
aI00
aI00
aI00
aI00
aI01
aa(lp97
I01
aI01
aI01
aI01
aI01
aI01
aI01
aI01
aI01
aI01
aI01
aI01
aI01
aI01
aI01
aI01
aI00
aI01
aa(lp98
I01
aI00
aI00
aI00
aI00
aI00
aI00
aI00
aI00
aI00
aI00
aI00
aI00
aI00
aI00
aI00
aI00
aI01
aa(lp99
I01
aI00
aI01
aI01
aI01
aI01
aI01
aI01
aI01
aI01
aI01
aI01
aI01
aI01
aI01
aI01
aI01
aI01
aa(lp100
I01
aI00
aI00
aI00
aI00
aI00
aI00
aI00
aI00
aI00
aI00
aI00
aI00
aI00
aI00
aI00
aI00
aI01
aa(lp101
I01
aI01
aI01
aI01
aI01
aI01
aI01
aI01
aI01
aI01
aI01
aI01
aI01
aI01
aI01
aI01
aI01
aI01
aasg53
I18
sbsS'totalFood'
p102
I60
sS'layoutText'
p103
(lp104
S'%%%%%%%%%%%%%%%%%%%%%%%%%%%%%%%%%%'
p105
aS'%   %. % .%.%      %.%.%.%.%   %4%'
p106
aS'% % %  %    % %%%  %.%.%.%.  % %2%'
p107
aS'% % % %%    %  %     % % %%% % % %'
p108
aS'% % % .%  % .  %   % %.% %.% % % %'
p109
aS'% % %o%%. % %      % % % %.% % % %'
p110
aS'% % % .%.  .%. %%% % %.%  .  % % %'
p111
aS'% % % %%% %.%      %   % %.% % % %'
p112
aS'% % %o.   %.%% %%  ..% %.%%% % % %'
p113
aS'% % % %%%.% %..  %% %%.%   .o% % %'
p114
aS'% % % %.% %   %      %.% %%% % % %'
p115
aS'% % %  .  %.% % %%% .%.  .%. % % %'
p116
aS'% % % %.% % % %      % % .%%o% % %'
p117
aS'% % % %.% %.% %   %  . %  %. % % %'
p118
aS'% % % %%% % %     %  %    %% % % %'
p119
aS'%1% %  .%.%.%.%  %%% %    %  % % %'
p120
aS'%3%   %.%.%.%.%      %.%. % .%   %'
p121
aS'%%%%%%%%%%%%%%%%%%%%%%%%%%%%%%%%%%'
p122
asbsS'blueTeamName'
p123
S'Blue'
p124
sS'actions'
p125
(lp126
(I1
S'South'
p127
tp128
a(I2
S'North'
p129
tp130
a(I3
g127
tp131
a(I0
g129
tp132
a(I1
g127
tp133
a(I2
g129
tp134
a(I3
g127
tp135
a(I0
g129
tp136
a(I1
g127
tp137
a(I2
g129
tp138
a(I3
g127
tp139
a(I0
g129
tp140
a(I1
g127
tp141
a(I2
g129
tp142
a(I3
g127
tp143
a(I0
g129
tp144
a(I1
g127
tp145
a(I2
g129
tp146
a(I3
g127
tp147
a(I0
g129
tp148
a(I1
g127
tp149
a(I2
g129
tp150
a(I3
g127
tp151
a(I0
g129
tp152
a(I1
g127
tp153
a(I2
g129
tp154
a(I3
g127
tp155
a(I0
g129
tp156
a(I1
g127
tp157
a(I2
g129
tp158
a(I3
g127
tp159
a(I0
g129
tp160
a(I1
g127
tp161
a(I2
g129
tp162
a(I3
g127
tp163
a(I0
g129
tp164
a(I1
g127
tp165
a(I2
g129
tp166
a(I3
g127
tp167
a(I0
g129
tp168
a(I1
g127
tp169
a(I2
g129
tp170
a(I3
g127
tp171
a(I0
g129
tp172
a(I1
g127
tp173
a(I2
g129
tp174
a(I3
g127
tp175
a(I0
g129
tp176
a(I1
g127
tp177
a(I2
g129
tp178
a(I3
g127
tp179
a(I0
g129
tp180
a(I1
g127
tp181
a(I2
g129
tp182
a(I3
g127
tp183
a(I0
g129
tp184
a(I1
S'West'
p185
tp186
a(I2
g129
tp187
a(I3
g127
tp188
a(I0
S'East'
p189
tp190
a(I1
g185
tp191
a(I2
g189
tp192
a(I3
g185
tp193
a(I0
g189
tp194
a(I1
g129
tp195
a(I2
g189
tp196
a(I3
g185
tp197
a(I0
g127
tp198
a(I1
g129
tp199
a(I2
g127
tp200
a(I3
g129
tp201
a(I0
g127
tp202
a(I1
g129
tp203
a(I2
g127
tp204
a(I3
g129
tp205
a(I0
g127
tp206
a(I1
g129
tp207
a(I2
g127
tp208
a(I3
g129
tp209
a(I0
g127
tp210
a(I1
g129
tp211
a(I2
g127
tp212
a(I3
g129
tp213
a(I0
g127
tp214
a(I1
g129
tp215
a(I2
g127
tp216
a(I3
g129
tp217
a(I0
g127
tp218
a(I1
g129
tp219
a(I2
g127
tp220
a(I3
g129
tp221
a(I0
g127
tp222
a(I1
g129
tp223
a(I2
g127
tp224
a(I3
g129
tp225
a(I0
g127
tp226
a(I1
g129
tp227
a(I2
g127
tp228
a(I3
g129
tp229
a(I0
g127
tp230
a(I1
g129
tp231
a(I2
g127
tp232
a(I3
g129
tp233
a(I0
g127
tp234
a(I1
g129
tp235
a(I2
g127
tp236
a(I3
g129
tp237
a(I0
g127
tp238
a(I1
g129
tp239
a(I2
g127
tp240
a(I3
g129
tp241
a(I0
g127
tp242
a(I1
g129
tp243
a(I2
g127
tp244
a(I3
g129
tp245
a(I0
g127
tp246
a(I1
g129
tp247
a(I2
g127
tp248
a(I3
g129
tp249
a(I0
g127
tp250
a(I1
g129
tp251
a(I2
g127
tp252
a(I3
g129
tp253
a(I0
g127
tp254
a(I1
g185
tp255
a(I2
g127
tp256
a(I3
g129
tp257
a(I0
g189
tp258
a(I1
g185
tp259
a(I2
g189
tp260
a(I3
g185
tp261
a(I0
g189
tp262
a(I1
g127
tp263
a(I2
g189
tp264
a(I3
g185
tp265
a(I0
g129
tp266
a(I1
g127
tp267
a(I2
g129
tp268
a(I3
g127
tp269
a(I0
g129
tp270
a(I1
g127
tp271
a(I2
g129
tp272
a(I3
g127
tp273
a(I0
g129
tp274
a(I1
g127
tp275
a(I2
g129
tp276
a(I3
g127
tp277
a(I0
g129
tp278
a(I1
g127
tp279
a(I2
g129
tp280
a(I3
g127
tp281
a(I0
g129
tp282
a(I1
g127
tp283
a(I2
g129
tp284
a(I3
g127
tp285
a(I0
g129
tp286
a(I1
g127
tp287
a(I2
g189
tp288
a(I3
g185
tp289
a(I0
g129
tp290
a(I1
g127
tp291
a(I2
g189
tp292
a(I3
g185
tp293
a(I0
g129
tp294
a(I1
g185
tp295
a(I2
g189
tp296
a(I3
g185
tp297
a(I0
g189
tp298
a(I1
g185
tp299
a(I2
g189
tp300
a(I3
g185
tp301
a(I0
g189
tp302
a(I1
g185
tp303
a(I2
g129
tp304
a(I3
g127
tp305
a(I0
g189
tp306
a(I1
g185
tp307
a(I2
g129
tp308
a(I3
g127
tp309
a(I0
g189
tp310
a(I1
g127
tp311
a(I2
g129
tp312
a(I3
g127
tp313
a(I0
g129
tp314
a(I1
g127
tp315
a(I2
g129
tp316
a(I3
g127
tp317
a(I0
g129
tp318
a(I1
g185
tp319
a(I2
g129
tp320
a(I3
g127
tp321
a(I0
g189
tp322
a(I1
g185
tp323
a(I2
g189
tp324
a(I3
g185
tp325
a(I0
g189
tp326
a(I1
g127
tp327
a(I2
g189
tp328
a(I3
g185
tp329
a(I0
g127
tp330
a(I1
g127
tp331
a(I2
g129
tp332
a(I3
g127
tp333
a(I0
g127
tp334
a(I1
g185
tp335
a(I2
g129
tp336
a(I3
g127
tp337
a(I0
g127
tp338
a(I1
g185
tp339
a(I2
g189
tp340
a(I3
g185
tp341
a(I0
g127
tp342
a(I1
g185
tp343
a(I2
g189
tp344
a(I3
g185
tp345
a(I0
g189
tp346
a(I1
g129
tp347
a(I2
g127
tp348
a(I3
g185
tp349
a(I0
g189
tp350
a(I1
g129
tp351
a(I2
g127
tp352
a(I3
g129
tp353
a(I0
g129
tp354
a(I1
g129
tp355
a(I2
g127
tp356
a(I3
g185
tp357
a(I0
g189
tp358
a(I1
g185
tp359
a(I2
g189
tp360
a(I3
g185
tp361
a(I0
g189
tp362
a(I1
g185
tp363
a(I2
g189
tp364
a(I3
g185
tp365
a(I0
g185
tp366
a(I1
g185
tp367
a(I2
g185
tp368
a(I3
g127
tp369
a(I0
g189
tp370
a(I1
g189
tp371
a(I2
g127
tp372
a(I3
g127
tp373
a(I0
g185
tp374
a(I1
g189
tp375
a(I2
g129
tp376
a(I3
g127
tp377
a(I0
g189
tp378
a(I1
g189
tp379
a(I2
g189
tp380
a(I3
g127
tp381
a(I0
g189
tp382
a(I1
g189
tp383
a(I2
g189
tp384
a(I3
g129
tp385
a(I0
g127
tp386
a(I1
g127
tp387
a(I2
g189
tp388
a(I3
g185
tp389
a(I0
g189
tp390
a(I1
g185
tp391
a(I2
g189
tp392
a(I3
g129
tp393
a(I0
g185
tp394
a(I1
g129
tp395
a(I2
g127
tp396
a(I3
g189
tp397
a(I0
g185
tp398
a(I1
g129
tp399
a(I2
g189
tp400
a(I3
g129
tp401
a(I0
g127
tp402
a(I1
g129
tp403
a(I2
g129
tp404
a(I3
g127
tp405
a(I0
g127
tp406
a(I1
g185
tp407
a(I2
g129
tp408
a(I3
g127
tp409
a(I0
g127
tp410
a(I1
g129
tp411
a(I2
g129
tp412
a(I3
g127
tp413
a(I0
g127
tp414
a(I1
g185
tp415
a(I2
g129
tp416
a(I3
g129
tp417
a(I0
g129
tp418
a(I1
g185
tp419
a(I2
g129
tp420
a(I3
g127
tp421
a(I0
g129
tp422
a(I1
g185
tp423
a(I2
g129
tp424
a(I3
g129
tp425
a(I0
g189
tp426
a(I1
g189
tp427
a(I2
g129
tp428
a(I3
g185
tp429
a(I0
g189
tp430
a(I1
g189
tp431
a(I2
g129
tp432
a(I3
g129
tp433
a(I0
g189
tp434
a(I1
g189
tp435
a(I2
g129
tp436
a(I3
g189
tp437
a(I0
g189
tp438
a(I1
g127
tp439
a(I2
g129
tp440
a(I3
g129
tp441
a(I0
g129
tp442
a(I1
g189
tp443
a(I2
g129
tp444
a(I3
g189
tp445
a(I0
g127
tp446
a(I1
g127
tp447
a(I2
g129
tp448
a(I3
g185
tp449
a(I0
g185
tp450
a(I1
g127
tp451
a(I2
g129
tp452
a(I3
g129
tp453
a(I0
g185
tp454
a(I1
g127
tp455
a(I2
g129
tp456
a(I3
g189
tp457
a(I0
g129
tp458
a(I1
g129
tp459
a(I2
g129
tp460
a(I3
g185
tp461
a(I0
g129
tp462
a(I1
g185
tp463
a(I2
g189
tp464
a(I3
g185
tp465
a(I0
g129
tp466
a(I1
g185
tp467
a(I2
g189
tp468
a(I3
g129
tp469
a(I0
g129
tp470
a(I1
g185
tp471
a(I2
g127
tp472
a(I3
g129
tp473
a(I0
g129
tp474
a(I1
g129
tp475
a(I2
g127
tp476
a(I3
g129
tp477
a(I0
g129
tp478
a(I1
g185
tp479
a(I2
g127
tp480
a(I3
g185
tp481
a(I0
g129
tp482
a(I1
g185
tp483
a(I2
g127
tp484
a(I3
g185
tp485
a(I0
g129
tp486
a(I1
g129
tp487
a(I2
g127
tp488
a(I3
g189
tp489
a(I0
g129
tp490
a(I1
g129
tp491
a(I2
g127
tp492
a(I3
g189
tp493
a(I0
g129
tp494
a(I1
g129
tp495
a(I2
g127
tp496
a(I3
g189
tp497
a(I0
g129
tp498
a(I1
g185
tp499
a(I2
g127
tp500
a(I3
g127
tp501
a(I0
g129
tp502
a(I1
g129
tp503
a(I2
g127
tp504
a(I3
g189
tp505
a(I0
g129
tp506
a(I1
g189
tp507
a(I2
g127
tp508
a(I3
g185
tp509
a(I0
g129
tp510
a(I1
g189
tp511
a(I2
g127
tp512
a(I3
g129
tp513
a(I0
g189
tp514
a(I1
g189
tp515
a(I2
g127
tp516
a(I3
g185
tp517
a(I0
g189
tp518
a(I1
g189
tp519
a(I2
g127
tp520
a(I3
g185
tp521
a(I0
g127
tp522
a(I1
g185
tp523
a(I2
g127
tp524
a(I3
g185
tp525
a(I0
g127
tp526
a(I1
g185
tp527
a(I2
g127
tp528
a(I3
g127
tp529
a(I0
g127
tp530
a(I1
g185
tp531
a(I2
g189
tp532
a(I3
g185
tp533
a(I0
g127
tp534
a(I1
g129
tp535
a(I2
g189
tp536
a(I3
g185
tp537
a(I0
g127
tp538
a(I1
g185
tp539
a(I2
g129
tp540
a(I3
g127
tp541
a(I0
g127
tp542
a(I1
g185
tp543
a(I2
g129
tp544
a(I3
g129
tp545
a(I0
g127
tp546
a(I1
g189
tp547
a(I2
g129
tp548
a(I3
g189
tp549
a(I0
g127
tp550
a(I1
g189
tp551
a(I2
g129
tp552
a(I3
g189
tp553
a(I0
g127
tp554
a(I1
g127
tp555
a(I2
g129
tp556
a(I3
g129
tp557
a(I0
g127
tp558
a(I1
g189
tp559
a(I2
g189
tp560
a(I3
g189
tp561
a(I0
g127
tp562
a(I1
g189
tp563
a(I2
g189
tp564
a(I3
g189
tp565
a(I0
g127
tp566
a(I1
g189
tp567
a(I2
g189
tp568
a(I3
g127
tp569
a(I0
g127
tp570
a(I1
g185
tp571
a(I2
g189
tp572
a(I3
g189
tp573
a(I0
g127
tp574
a(I1
g185
tp575
a(I2
g129
tp576
a(I3
g189
tp577
a(I0
g127
tp578
a(I1
g185
tp579
a(I2
g129
tp580
a(I3
g185
tp581
a(I0
g189
tp582
a(I1
g185
tp583
a(I2
g129
tp584
a(I3
g185
tp585
a(I0
g189
tp586
a(I1
g129
tp587
a(I2
g129
tp588
a(I3
g127
tp589
a(I0
g129
tp590
a(I1
g185
tp591
a(I2
g129
tp592
a(I3
g127
tp593
a(I0
g129
tp594
a(I1
g189
tp595
a(I2
g189
tp596
a(I3
g127
tp597
a(I0
g129
tp598
a(I1
g129
tp599
a(I2
g189
tp600
a(I3
g189
tp601
a(I0
g129
tp602
a(I1
g129
tp603
a(I2
g127
tp604
a(I3
g185
tp605
a(I0
g129
tp606
a(I1
g127
tp607
a(I2
g127
tp608
a(I3
g127
tp609
a(I0
g129
tp610
a(I1
g127
tp611
a(I2
g127
tp612
a(I3
g185
tp613
a(I0
g129
tp614
a(I1
g185
tp615
a(I2
g127
tp616
a(I3
g185
tp617
a(I0
g129
tp618
a(I1
g185
tp619
a(I2
g127
tp620
a(I3
g127
tp621
a(I0
g189
tp622
a(I1
g127
tp623
a(I2
g129
tp624
a(I3
g127
tp625
a(I0
g189
tp626
a(I1
g127
tp627
a(I2
g129
tp628
a(I3
g129
tp629
a(I0
g189
tp630
a(I1
g127
tp631
a(I2
g129
tp632
a(I3
g127
tp633
a(I0
g189
tp634
a(I1
g129
tp635
a(I2
g129
tp636
a(I3
g129
tp637
a(I0
g129
tp638
a(I1
g129
tp639
a(I2
g129
tp640
a(I3
g127
tp641
a(I0
g129
tp642
a(I1
g129
tp643
a(I2
g129
tp644
a(I3
g129
tp645
a(I0
g189
tp646
a(I1
g189
tp647
a(I2
g129
tp648
a(I3
g127
tp649
a(I0
g189
tp650
a(I1
g189
tp651
a(I2
g189
tp652
a(I3
g129
tp653
a(I0
g127
tp654
a(I1
g189
tp655
a(I2
g189
tp656
a(I3
g127
tp657
a(I0
g127
tp658
a(I1
g127
tp659
a(I2
g189
tp660
a(I3
g129
tp661
a(I0
g127
tp662
a(I1
g189
tp663
a(I2
g127
tp664
a(I3
g127
tp665
a(I0
g127
tp666
a(I1
g189
tp667
a(I2
g189
tp668
a(I3
g129
tp669
a(I0
g189
tp670
a(I1
g189
tp671
a(I2
g185
tp672
a(I3
g127
tp673
a(I0
g189
tp674
a(I1
g189
tp675
a(I2
g185
tp676
a(I3
g129
tp677
a(I0
g129
tp678
a(I1
g185
tp679
a(I2
g129
tp680
a(I3
g127
tp681
a(I0
g189
tp682
a(I1
g185
tp683
a(I2
g189
tp684
a(I3
g129
tp685
a(I0
g189
tp686
a(I1
g129
tp687
a(I2
g127
tp688
a(I3
g127
tp689
a(I0
g127
tp690
a(I1
g129
tp691
a(I2
g189
tp692
a(I3
g129
tp693
a(I0
g127
tp694
a(I1
g127
tp695
a(I2
g189
tp696
a(I3
g127
tp697
a(I0
g127
tp698
a(I1
g129
tp699
a(I2
g189
tp700
a(I3
g129
tp701
a(I0
g189
tp702
a(I1
g189
tp703
a(I2
g185
tp704
a(I3
g127
tp705
a(I0
g189
tp706
a(I1
g127
tp707
a(I2
g185
tp708
a(I3
g129
tp709
a(I0
g189
tp710
a(I1
g127
tp711
a(I2
g185
tp712
a(I3
g129
tp713
a(I0
g189
tp714
a(I1
g185
tp715
a(I2
g189
tp716
a(I3
g129
tp717
a(I0
g189
tp718
a(I1
g129
tp719
a(I2
g189
tp720
a(I3
g129
tp721
a(I0
g129
tp722
a(I1
g129
tp723
a(I2
g189
tp724
a(I3
g129
tp725
a(I0
g127
tp726
a(I1
g189
tp727
a(I2
g185
tp728
a(I3
g129
tp729
a(I0
g127
tp730
a(I1
g129
tp731
a(I2
g185
tp732
a(I3
g185
tp733
a(I0
g189
tp734
a(I1
g129
tp735
a(I2
g185
tp736
a(I3
g185
tp737
a(I0
g189
tp738
a(I1
g185
tp739
a(I2
g185
tp740
a(I3
g129
tp741
a(I0
g129
tp742
a(I1
g185
tp743
a(I2
g129
tp744
a(I3
g129
tp745
a(I0
g129
tp746
a(I1
g185
tp747
a(I2
g129
tp748
a(I3
g129
tp749
a(I0
g129
tp750
a(I1
g185
tp751
a(I2
g129
tp752
a(I3
g129
tp753
a(I0
g129
tp754
a(I1
g127
tp755
a(I2
g127
tp756
a(I3
g129
tp757
a(I0
g129
tp758
a(I1
g127
tp759
a(I2
g127
tp760
a(I3
g129
tp761
a(I0
g129
tp762
a(I1
g127
tp763
a(I2
g185
tp764
a(I3
g129
tp765
a(I0
g129
tp766
a(I1
g127
tp767
a(I2
g185
tp768
a(I3
g185
tp769
a(I0
g129
tp770
a(I1
g127
tp771
a(I2
g129
tp772
a(I3
g185
tp773
a(I0
g129
tp774
a(I1
g127
tp775
a(I2
g185
tp776
a(I3
g185
tp777
a(I0
g129
tp778
a(I1
g127
tp779
a(I2
g185
tp780
a(I3
g127
tp781
a(I0
g129
tp782
a(I1
g127
tp783
a(I2
g185
tp784
a(I3
g189
tp785
a(I0
g129
tp786
a(I1
g127
tp787
a(I2
g127
tp788
a(I3
g129
tp789
a(I0
g127
tp790
a(I1
g127
tp791
a(I2
g129
tp792
a(I3
g189
tp793
a(I0
g127
tp794
a(I1
g127
tp795
a(I2
g189
tp796
a(I3
g189
tp797
a(I0
g127
tp798
a(I1
g127
tp799
a(I2
g189
tp800
a(I3
g127
tp801
a(I0
g127
tp802
a(I1
g127
tp803
a(I2
g189
tp804
a(I3
g189
tp805
a(I0
g127
tp806
a(I1
g127
tp807
a(I2
g127
tp808
a(I3
g189
tp809
a(I0
g127
tp810
a(I1
g127
tp811
a(I2
g189
tp812
a(I3
g127
tp813
a(I0
g185
tp814
a(I1
g185
tp815
a(I2
g189
tp816
a(I3
g189
tp817
a(I0
g185
tp818
a(I1
g185
tp819
a(I2
g127
tp820
a(I3
g189
tp821
a(I0
g127
tp822
a(I1
g129
tp823
a(I2
g189
tp824
a(I3
g189
tp825
a(I0
g185
tp826
a(I1
g129
tp827
a(I2
g189
tp828
a(I3
g189
tp829
a(I0
g185
tp830
a(I1
g129
tp831
a(I2
g185
tp832
a(I3
g185
tp833
a(I0
g185
tp834
a(I1
g129
tp835
a(I2
g189
tp836
a(I3
g129
tp837
a(I0
g129
tp838
a(I1
g129
tp839
a(I2
g189
tp840
a(I3
g189
tp841
a(I0
g185
tp842
a(I1
g129
tp843
a(I2
g185
tp844
a(I3
g127
tp845
a(I0
g185
tp846
a(I1
g129
tp847
a(I2
g185
tp848
a(I3
g189
tp849
a(I0
g185
tp850
a(I1
g129
tp851
a(I2
g129
tp852
a(I3
g185
tp853
a(I0
g127
tp854
a(I1
g129
tp855
a(I2
g185
tp856
a(I3
g185
tp857
a(I0
g127
tp858
a(I1
g129
tp859
a(I2
g189
tp860
a(I3
g129
tp861
a(I0
g189
tp862
a(I1
g129
tp863
a(I2
g127
tp864
a(I3
g129
tp865
a(I0
g127
tp866
a(I1
g129
tp867
a(I2
g189
tp868
a(I3
g127
tp869
a(I0
g127
tp870
a(I1
g129
tp871
a(I2
g189
tp872
a(I3
g129
tp873
a(I0
g127
tp874
a(I1
g129
tp875
a(I2
g189
tp876
a(I3
g189
tp877
a(I0
g189
tp878
a(I1
g129
tp879
a(I2
g185
tp880
a(I3
g189
tp881
a(I0
g189
tp882
a(I1
g185
tp883
a(I2
g185
tp884
a(I3
g127
tp885
a(I0
g189
tp886
a(I1
g185
tp887
a(I2
g185
tp888
a(I3
g185
tp889
a(I0
g189
tp890
a(I1
g127
tp891
a(I2
g185
tp892
a(I3
g185
tp893
a(I0
g189
tp894
a(I1
g127
tp895
a(I2
g189
tp896
a(I3
g127
tp897
a(I0
g127
tp898
a(I1
g127
tp899
a(I2
g189
tp900
a(I3
g189
tp901
a(I0
g189
tp902
a(I1
g127
tp903
a(I2
g185
tp904
a(I3
g189
tp905
a(I0
g189
tp906
a(I1
g127
tp907
a(I2
g129
tp908
a(I3
g127
tp909
a(I0
g127
tp910
a(I1
g185
tp911
a(I2
g185
tp912
a(I3
g127
tp913
a(I0
g127
tp914
a(I1
g185
tp915
a(I2
g185
tp916
a(I3
g185
tp917
a(I0
g129
tp918
a(I1
g185
tp919
a(I2
g185
tp920
a(I3
g185
tp921
a(I0
g127
tp922
a(I1
g185
tp923
a(I2
g127
tp924
a(I3
g185
tp925
a(I0
g189
tp926
a(I1
g127
tp927
a(I2
g127
tp928
a(I3
g185
tp929
a(I0
g185
tp930
a(I1
g127
tp931
a(I2
g129
tp932
a(I3
g127
tp933
a(I0
g129
tp934
a(I1
g127
tp935
a(I2
g127
tp936
a(I3
g127
tp937
a(I0
g127
tp938
a(I1
g127
tp939
a(I2
g185
tp940
a(I3
g189
tp941
a(I0
g129
tp942
a(I1
g127
tp943
a(I2
g185
tp944
a(I3
g127
tp945
a(I0
g127
tp946
a(I1
g185
tp947
a(I2
g185
tp948
a(I3
g189
tp949
a(I0
g189
tp950
a(I1
g185
tp951
a(I2
g189
tp952
a(I3
g189
tp953
a(I0
g185
tp954
a(I1
g127
tp955
a(I2
g189
tp956
a(I3
g189
tp957
a(I0
g189
tp958
a(I1
g127
tp959
a(I2
g189
tp960
a(I3
g189
tp961
a(I0
g189
tp962
a(I1
g127
tp963
a(I2
g129
tp964
a(I3
g127
tp965
a(I0
g189
tp966
a(I1
g127
tp967
a(I2
g129
tp968
a(I3
g127
tp969
a(I0
g129
tp970
a(I1
g189
tp971
a(I2
g189
tp972
a(I3
g127
tp973
a(I0
g129
tp974
a(I1
g189
tp975
a(I2
g189
tp976
a(I3
g189
tp977
a(I0
g129
tp978
a(I1
g189
tp979
a(I2
g189
tp980
a(I3
g189
tp981
a(I0
g185
tp982
a(I1
g129
tp983
a(I2
g127
tp984
a(I3
g189
tp985
a(I0
g129
tp986
a(I1
g129
tp987
a(I2
g189
tp988
a(I3
g129
tp989
a(I0
g129
tp990
a(I1
g129
tp991
a(I2
g189
tp992
a(I3
g129
tp993
a(I0
g129
tp994
a(I1
g185
tp995
a(I2
g129
tp996
a(I3
g189
tp997
a(I0
g189
tp998
a(I1
g129
tp999
a(I2
g129
tp1000
a(I3
g189
tp1001
a(I0
g189
tp1002
a(I1
g129
tp1003
a(I2
g189
tp1004
a(I3
g129
tp1005
a(I0
g189
tp1006
a(I1
g129
tp1007
a(I2
g189
tp1008
a(I3
g129
tp1009
a(I0
g189
tp1010
a(I1
g189
tp1011
a(I2
g189
tp1012
a(I3
g189
tp1013
a(I0
g185
tp1014
a(I1
g189
tp1015
a(I2
g189
tp1016
a(I3
g189
tp1017
a(I0
g185
tp1018
a(I1
g127
tp1019
a(I2
g129
tp1020
a(I3
g127
tp1021
a(I0
g185
tp1022
a(I1
g127
tp1023
a(I2
g129
tp1024
a(I3
g127
tp1025
a(I0
g185
tp1026
a(I1
g127
tp1027
a(I2
g127
tp1028
a(I3
g127
tp1029
a(I0
g127
tp1030
a(I1
g127
tp1031
a(I2
g127
tp1032
a(I3
g127
tp1033
a(I0
g127
tp1034
a(I1
g127
tp1035
a(I2
g127
tp1036
a(I3
g127
tp1037
a(I0
g185
tp1038
a(I1
g127
tp1039
a(I2
g127
tp1040
a(I3
g127
tp1041
a(I0
g185
tp1042
a(I1
g127
tp1043
a(I2
g127
tp1044
a(I3
g127
tp1045
a(I0
g127
tp1046
a(I1
g127
tp1047
a(I2
g127
tp1048
a(I3
g127
tp1049
a(I0
g127
tp1050
a(I1
g127
tp1051
a(I2
g189
tp1052
a(I3
g127
tp1053
a(I0
g185
tp1054
a(I1
g127
tp1055
a(I2
g189
tp1056
a(I3
g127
tp1057
a(I0
g185
tp1058
a(I1
g127
tp1059
a(I2
g127
tp1060
a(I3
g127
tp1061
a(I0
g185
tp1062
a(I1
g127
tp1063
a(I2
g127
tp1064
a(I3
g127
tp1065
a(I0
g129
tp1066
a(I1
g127
tp1067
a(I2
g127
tp1068
a(I3
g127
tp1069
a(I0
g185
tp1070
a(I1
g127
tp1071
a(I2
g127
tp1072
a(I3
g127
tp1073
a(I0
g185
tp1074
a(I1
g185
tp1075
a(I2
g189
tp1076
a(I3
g127
tp1077
a(I0
g185
tp1078
a(I1
g185
tp1079
a(I2
g189
tp1080
a(I3
g185
tp1081
a(I0
g127
tp1082
a(I1
g129
tp1083
a(I2
g189
tp1084
a(I3
g185
tp1085
a(I0
g185
tp1086
a(I1
g129
tp1087
a(I2
g185
tp1088
a(I3
g129
tp1089
a(I0
g189
tp1090
a(I1
g129
tp1091
a(I2
g185
tp1092
a(I3
g129
tp1093
a(I0
g129
tp1094
a(I1
g129
tp1095
a(I2
g185
tp1096
a(I3
g129
tp1097
a(I0
g189
tp1098
a(I1
g129
tp1099
a(I2
g129
tp1100
a(I3
g129
tp1101
a(I0
g189
tp1102
a(I1
g129
tp1103
a(I2
g129
tp1104
a(I3
g129
tp1105
a(I0
g189
tp1106
a(I1
g129
tp1107
a(I2
g129
tp1108
a(I3
g129
tp1109
a(I0
g189
tp1110
a(I1
g129
tp1111
a(I2
g129
tp1112
a(I3
g129
tp1113
a(I0
g127
tp1114
a(I1
g129
tp1115
a(I2
g185
tp1116
a(I3
g129
tp1117
a(I0
g189
tp1118
a(I1
g129
tp1119
a(I2
g185
tp1120
a(I3
g129
tp1121
a(I0
g189
tp1122
a(I1
g129
tp1123
a(I2
g127
tp1124
a(I3
g129
tp1125
a(I0
g127
tp1126
a(I1
g129
tp1127
a(I2
g185
tp1128
a(I3
g129
tp1129
a(I0
g127
tp1130
a(I1
g129
tp1131
a(I2
g185
tp1132
a(I3
g129
tp1133
a(I0
g127
tp1134
a(I1
g129
tp1135
a(I2
g129
tp1136
a(I3
g129
tp1137
a(I0
g129
tp1138
a(I1
g129
tp1139
a(I2
g129
tp1140
a(I3
g129
tp1141
a(I0
g189
tp1142
a(I1
g185
tp1143
a(I2
g129
tp1144
a(I3
g129
tp1145
a(I0
g189
tp1146
a(I1
g185
tp1147
a(I2
g185
tp1148
a(I3
g185
tp1149
a(I0
g127
tp1150
a(I1
g127
tp1151
a(I2
g185
tp1152
a(I3
g185
tp1153
a(I0
g129
tp1154
a(I1
g127
tp1155
a(I2
g185
tp1156
a(I3
g127
tp1157
a(I0
g129
tp1158
a(I1
g127
tp1159
a(I2
g185
tp1160
a(I3
g127
tp1161
a(I0
g129
tp1162
a(I1
g127
tp1163
a(I2
g189
tp1164
a(I3
g127
tp1165
a(I0
g129
tp1166
a(I1
g127
tp1167
a(I2
g185
tp1168
a(I3
g127
tp1169
a(I0
g129
tp1170
a(I1
g127
tp1171
a(I2
g189
tp1172
a(I3
g127
tp1173
a(I0
g129
tp1174
a(I1
g127
tp1175
a(I2
g189
tp1176
a(I3
g185
tp1177
a(I0
g129
tp1178
a(I1
g127
tp1179
a(I2
g185
tp1180
a(I3
g185
tp1181
a(I0
g189
tp1182
a(I1
g185
tp1183
a(I2
g185
tp1184
a(I3
g185
tp1185
a(I0
g185
tp1186
a(I1
g185
tp1187
a(I2
g189
tp1188
a(I3
g185
tp1189
a(I0
g127
tp1190
a(I1
g185
tp1191
a(I2
g185
tp1192
a(I3
g127
tp1193
a(I0
g127
tp1194
a(I1
g185
tp1195
a(I2
g189
tp1196
a(I3
g127
tp1197
a(I0
g185
tp1198
a(I1
g127
tp1199
a(I2
g189
tp1200
a(I3
g127
tp1201
a(I0
g185
tp1202
a(I1
g127
tp1203
a(I2
g185
tp1204
a(I3
g127
tp1205
a(I0
g127
tp1206
a(I1
g185
tp1207
a(I2
g189
tp1208
a(I3
g127
tp1209
a(I0
g127
tp1210
a(I1
g185
tp1211
a(I2
g185
tp1212
a(I3
g185
tp1213
a(I0
g185
tp1214
a(I1
g127
tp1215
a(I2
g189
tp1216
a(I3
g185
tp1217
a(I0
g185
tp1218
a(I1
g127
tp1219
a(I2
g185
tp1220
a(I3
g127
tp1221
a(I0
g185
tp1222
a(I1
g185
tp1223
a(I2
g189
tp1224
a(I3
g127
tp1225
a(I0
g129
tp1226
a(I1
g185
tp1227
a(I2
g185
tp1228
a(I3
g185
tp1229
a(I0
g185
tp1230
a(I1
g185
tp1231
a(I2
g185
tp1232
a(I3
g185
tp1233
a(I0
g185
tp1234
a(I1
g129
tp1235
a(I2
g189
tp1236
a(I3
g185
tp1237
a(I0
g185
tp1238
a(I1
g189
tp1239
a(I2
g185
tp1240
a(I3
g129
tp1241
a(I0
g185
tp1242
a(I1
g185
tp1243
a(I2
g189
tp1244
a(I3
g185
tp1245
a(I0
g127
tp1246
a(I1
g129
tp1247
a(I2
g185
tp1248
a(I3
g185
tp1249
a(I0
g127
tp1250
a(I1
g129
tp1251
a(I2
g189
tp1252
a(I3
g127
tp1253
a(I0
g127
tp1254
a(I1
g185
tp1255
a(I2
g185
tp1256
a(I3
g185
tp1257
a(I0
g127
tp1258
a(I1
g185
tp1259
a(I2
g127
tp1260
a(I3
g129
tp1261
a(I0
g189
tp1262
a(I1
g185
tp1263
a(I2
g127
tp1264
a(I3
g185
tp1265
a(I0
g189
tp1266
a(I1
g185
tp1267
a(I2
g127
tp1268
a(I3
g127
tp1269
a(I0
g189
tp1270
a(I1
g127
tp1271
a(I2
g127
tp1272
a(I3
g127
tp1273
a(I0
g189
tp1274
a(I1
g127
tp1275
a(I2
g189
tp1276
a(I3
g127
tp1277
a(I0
g189
tp1278
a(I1
g189
tp1279
a(I2
g127
tp1280
a(I3
g127
tp1281
a(I0
g129
tp1282
a(I1
g127
tp1283
a(I2
g127
tp1284
a(I3
g189
tp1285
a(I0
g129
tp1286
a(I1
g189
tp1287
a(I2
g129
tp1288
a(I3
g189
tp1289
a(I0
g129
tp1290
a(I1
g129
tp1291
a(I2
g129
tp1292
a(I3
g189
tp1293
a(I0
g189
tp1294
a(I1
g189
tp1295
a(I2
g185
tp1296
a(I3
g189
tp1297
a(I0
g189
tp1298
a(I1
g189
tp1299
a(I2
g129
tp1300
a(I3
g189
tp1301
a(I0
g129
tp1302
a(I1
g189
tp1303
a(I2
g129
tp1304
a(I3
g129
tp1305
a(I0
g129
tp1306
a(I1
g127
tp1307
a(I2
g129
tp1308
a(I3
g129
tp1309
a(I0
g189
tp1310
a(I1
g189
tp1311
a(I2
g129
tp1312
a(I3
g129
tp1313
a(I0
g189
tp1314
a(I1
g189
tp1315
a(I2
g189
tp1316
a(I3
g189
tp1317
a(I0
g129
tp1318
a(I1
g129
tp1319
a(I2
g185
tp1320
a(I3
g189
tp1321
a(I0
g129
tp1322
a(I1
g129
tp1323
a(I2
g189
tp1324
a(I3
g129
tp1325
a(I0
g129
tp1326
a(I1
g189
tp1327
a(I2
g185
tp1328
a(I3
g129
tp1329
a(I0
g127
tp1330
asS'length'
p1331
I1200
sS'agents'
p1332
(lp1333
(igame
Agent
p1334
(dp1335
S'index'
p1336
I0
sba(igame
Agent
p1337
(dp1338
g1336
I0
sba(igame
Agent
p1339
(dp1340
g1336
I0
sba(igame
Agent
p1341
(dp1342
g1336
I0
sbasS'redTeamName'
p1343
S'Red'
p1344
s.